(lp1
(cnumpy.core.multiarray
scalar
p2
(cnumpy
dtype
p3
(S'S4'
I0
I1
tRp4
(I3
S'|'
NNNI4
I1
I0
tbS'year'
tRp5
I128048
tp6
a(g2
(g3
(S'S7'
I0
I1
tRp7
(I3
S'|'
NNNI7
I1
I0
tbS'percent'
tRp8
I120978
tp9
a(g2
(g3
(S'S6'
I0
I1
tRp10
(I3
S'|'
NNNI6
I1
I0
tbS'market'
tRp11
I115072
tp12
a(g2
(g3
(S'S4'
I0
I1
tRp13
(I3
S'|'
NNNI4
I1
I0
tbS'trad'
tRp14
I111824
tp15
a(g2
(g3
(S'S8'
I0
I1
tRp16
(I3
S'|'
NNNI8
I1
I0
tbS'newsroom'
tRp17
I110414
tp18
a(g2
(g3
(S'S7'
I0
I1
tRp19
(I3
S'|'
NNNI7
I1
I0
tbS'million'
tRp20
I99212
tp21
a(g2
(g3
(S'S4'
I0
I1
tRp22
(I3
S'|'
NNNI4
I1
I0
tbS'pric'
tRp23
I94972
tp24
a(g2
(g3
(S'S4'
I0
I1
tRp25
(I3
S'|'
NNNI4
I1
I0
tbS'stat'
tRp26
I87624
tp27
a(g2
(g3
(S'S4'
I0
I1
tRp28
(I3
S'|'
NNNI4
I1
I0
tbS'week'
tRp29
I81299
tp30
a(g2
(g3
(S'S4'
I0
I1
tRp31
(I3
S'|'
NNNI4
I1
I0
tbS'bank'
tRp32
I80782
tp33
a(g2
(g3
(S'S4'
I0
I1
tRp34
(I3
S'|'
NNNI4
I1
I0
tbS'high'
tRp35
I79507
tp36
a(g2
(g3
(S'S3'
I0
I1
tRp37
(I3
S'|'
NNNI3
I1
I0
tbS'end'
tRp38
I79379
tp39
a(g2
(g3
(S'S6'
I0
I1
tRp40
(I3
S'|'
NNNI6
I1
I0
tbS'expect'
tRp41
I78829
tp42
a(g2
(g3
(S'S4'
I0
I1
tRp43
(I3
S'|'
NNNI4
I1
I0
tbS'clos'
tRp44
I77647
tp45
a(g2
(g3
(S'S5'
I0
I1
tRp46
(I3
S'|'
NNNI5
I1
I0
tbS'month'
tRp47
I77269
tp48
a(g2
(g3
(S'S3'
I0
I1
tRp49
(I3
S'|'
NNNI3
I1
I0
tbS'day'
tRp50
I76584
tp51
a(g2
(g3
(S'S7'
I0
I1
tRp52
(I3
S'|'
NNNI7
I1
I0
tbS'tuesday'
tRp53
I74872
tp54
a(g2
(g3
(S'S6'
I0
I1
tRp55
(I3
S'|'
NNNI6
I1
I0
tbS'compan'
tRp56
I73179
tp57
a(g2
(g3
(S'S4'
I0
I1
tRp58
(I3
S'|'
NNNI4
I1
I0
tbS'cent'
tRp59
I72025
tp60
a(g2
(g3
(S'S9'
I0
I1
tRp61
(I3
S'|'
NNNI9
I1
I0
tbS'wednesday'
tRp62
I71935
tp63
a(g2
(g3
(S'S8'
I0
I1
tRp64
(I3
S'|'
NNNI8
I1
I0
tbS'thursday'
tRp65
I70774
tp66
a(g2
(g3
(S'S6'
I0
I1
tRp67
(I3
S'|'
NNNI6
I1
I0
tbS'monday'
tRp68
I69000
tp69
a(g2
(g3
(S'S6'
I0
I1
tRp70
(I3
S'|'
NNNI6
I1
I0
tbS'friday'
tRp71
I68770
tp72
a(g2
(g3
(S'S5'
I0
I1
tRp73
(I3
S'|'
NNNI5
I1
I0
tbS'early'
tRp74
I65742
tp75
a(g2
(g3
(S'S5'
I0
I1
tRp76
(I3
S'|'
NNNI5
I1
I0
tbS'offic'
tRp77
I65162
tp78
a(g2
(g3
(S'S4'
I0
I1
tRp79
(I3
S'|'
NNNI4
I1
I0
tbS'shar'
tRp80
I64415
tp81
a(g2
(g3
(S'S3'
I0
I1
tRp82
(I3
S'|'
NNNI3
I1
I0
tbS'low'
tRp83
I63921
tp84
a(g2
(g3
(S'S6'
I0
I1
tRp85
(I3
S'|'
NNNI6
I1
I0
tbS'report'
tRp86
I63469
tp87
a(g2
(g3
(S'S3'
I0
I1
tRp88
(I3
S'|'
NNNI3
I1
I0
tbS'add'
tRp89
I62398
tp90
a(g2
(g3
(S'S4'
I0
I1
tRp91
(I3
S'|'
NNNI4
I1
I0
tbS'rate'
tRp92
I62291
tp93
a(g2
(g3
(S'S4'
I0
I1
tRp94
(I3
S'|'
NNNI4
I1
I0
tbS'deal'
tRp95
I61474
tp96
a(g2
(g3
(S'S4'
I0
I1
tRp97
(I3
S'|'
NNNI4
I1
I0
tbS'time'
tRp98
I59057
tp99
a(g2
(g3
(S'S5'
I0
I1
tRp100
(I3
S'|'
NNNI5
I1
I0
tbS'stock'
tRp101
I57831
tp102
a(g2
(g3
(S'S5'
I0
I1
tRp103
(I3
S'|'
NNNI5
I1
I0
tbS'point'
tRp104
I56459
tp105
a(g2
(g3
(S'S4'
I0
I1
tRp106
(I3
S'|'
NNNI4
I1
I0
tbS'lead'
tRp107
I54821
tp108
a(g2
(g3
(S'S6'
I0
I1
tRp109
(I3
S'|'
NNNI6
I1
I0
tbS'invest'
tRp110
I52541
tp111
a(g2
(g3
(S'S4'
I0
I1
tRp112
(I3
S'|'
NNNI4
I1
I0
tbS'issu'
tRp113
I52035
tp114
a(g2
(g3
(S'S3'
I0
I1
tRp115
(I3
S'|'
NNNI3
I1
I0
tbS'buy'
tRp116
I51866
tp117
a(g2
(g3
(S'S6'
I0
I1
tRp118
(I3
S'|'
NNNI6
I1
I0
tbS'govern'
tRp119
I51592
tp120
a(g2
(g3
(S'S4'
I0
I1
tRp121
(I3
S'|'
NNNI4
I1
I0
tbS'unit'
tRp122
I51468
tp123
a(g2
(g3
(S'S6'
I0
I1
tRp124
(I3
S'|'
NNNI6
I1
I0
tbS'produc'
tRp125
I50416
tp126
a(g2
(g3
(S'S6'
I0
I1
tRp127
(I3
S'|'
NNNI6
I1
I0
tbS'financ'
tRp128
I49991
tp129
a(g2
(g3
(S'S8'
I0
I1
tRp130
(I3
S'|'
NNNI8
I1
I0
tbS'interest'
tRp131
I49610
tp132
a(g2
(g3
(S'S7'
I0
I1
tRp133
(I3
S'|'
NNNI7
I1
I0
tbS'billion'
tRp134
I49270
tp135
a(g2
(g3
(S'S5'
I0
I1
tRp136
(I3
S'|'
NNNI5
I1
I0
tbS'group'
tRp137
I48106
tp138
a(g2
(g3
(S'S4'
I0
I1
tRp139
(I3
S'|'
NNNI4
I1
I0
tbS'sale'
tRp140
I46573
tp141
a(g2
(g3
(S'S4'
I0
I1
tRp142
(I3
S'|'
NNNI4
I1
I0
tbS'firm'
tRp143
I46142
tp144
a(g2
(g3
(S'S4'
I0
I1
tRp145
(I3
S'|'
NNNI4
I1
I0
tbS'told'
tRp146
I45656
tp147
a(g2
(g3
(S'S6'
I0
I1
tRp148
(I3
S'|'
NNNI6
I1
I0
tbS'nation'
tRp149
I45621
tp150
a(g2
(g3
(S'S4'
I0
I1
tRp151
(I3
S'|'
NNNI4
I1
I0
tbS'make'
tRp152
I44079
tp153
a(g2
(g3
(S'S4'
I0
I1
tRp154
(I3
S'|'
NNNI4
I1
I0
tbS'base'
tRp155
I43899
tp156
a(g2
(g3
(S'S5'
I0
I1
tRp157
(I3
S'|'
NNNI5
I1
I0
tbS'total'
tRp158
I43742
tp159
a(g2
(g3
(S'S3'
I0
I1
tRp160
(I3
S'|'
NNNI3
I1
I0
tbS'due'
tRp161
I43723
tp162
a(g2
(g3
(S'S4'
I0
I1
tRp163
(I3
S'|'
NNNI4
I1
I0
tbS'sell'
tRp164
I43617
tp165
a(g2
(g3
(S'S4'
I0
I1
tRp166
(I3
S'|'
NNNI4
I1
I0
tbS'plan'
tRp167
I43062
tp168
a(g2
(g3
(S'S4'
I0
I1
tRp169
(I3
S'|'
NNNI4
I1
I0
tbS'late'
tRp170
I42909
tp171
a(g2
(g3
(S'S4'
I0
I1
tRp172
(I3
S'|'
NNNI4
I1
I0
tbS'rise'
tRp173
I42767
tp174
a(g2
(g3
(S'S6'
I0
I1
tRp175
(I3
S'|'
NNNI6
I1
I0
tbS'includ'
tRp176
I42561
tp177
a(g2
(g3
(S'S4'
I0
I1
tRp178
(I3
S'|'
NNNI4
I1
I0
tbS'move'
tRp179
I42456
tp180
a(g2
(g3
(S'S4'
I0
I1
tRp181
(I3
S'|'
NNNI4
I1
I0
tbS'term'
tRp182
I41985
tp183
a(g2
(g3
(S'S7'
I0
I1
tRp184
(I3
S'|'
NNNI7
I1
I0
tbS'continu'
tRp185
I41938
tp186
a(g2
(g3
(S'S4'
I0
I1
tRp187
(I3
S'|'
NNNI4
I1
I0
tbS'open'
tRp188
I41718
tp189
a(g2
(g3
(S'S5'
I0
I1
tRp190
(I3
S'|'
NNNI5
I1
I0
tbS'futur'
tRp191
I41468
tp192
a(g2
(g3
(S'S7'
I0
I1
tRp193
(I3
S'|'
NNNI7
I1
I0
tbS'exchang'
tRp194
I41429
tp195
a(g2
(g3
(S'S7'
I0
I1
tRp196
(I3
S'|'
NNNI7
I1
I0
tbS'industr'
tRp197
I41398
tp198
a(g2
(g3
(S'S3'
I0
I1
tRp199
(I3
S'|'
NNNI3
I1
I0
tbS'set'
tRp200
I40884
tp201
a(g2
(g3
(S'S6'
I0
I1
tRp202
(I3
S'|'
NNNI6
I1
I0
tbS'intern'
tRp203
I40745
tp204
a(g2
(g3
(S'S5'
I0
I1
tRp205
(I3
S'|'
NNNI5
I1
I0
tbS'level'
tRp206
I40539
tp207
a(g2
(g3
(S'S6'
I0
I1
tRp208
(I3
S'|'
NNNI6
I1
I0
tbS'econom'
tRp209
I40500
tp210
a(g2
(g3
(S'S4'
I0
I1
tRp211
(I3
S'|'
NNNI4
I1
I0
tbS'call'
tRp212
I40414
tp213
a(g2
(g3
(S'S5'
I0
I1
tRp214
(I3
S'|'
NNNI5
I1
I0
tbS'secur'
tRp215
I40341
tp216
a(g2
(g3
(S'S6'
I0
I1
tRp217
(I3
S'|'
NNNI6
I1
I0
tbS'remain'
tRp218
I40142
tp219
a(g2
(g3
(S'S4'
I0
I1
tRp220
(I3
S'|'
NNNI4
I1
I0
tbS'long'
tRp221
I39592
tp222
a(g2
(g3
(S'S4'
I0
I1
tRp223
(I3
S'|'
NNNI4
I1
I0
tbS'back'
tRp224
I39472
tp225
a(g2
(g3
(S'S4'
I0
I1
tRp226
(I3
S'|'
NNNI4
I1
I0
tbS'hold'
tRp227
I39362
tp228
a(g2
(g3
(S'S4'
I0
I1
tRp229
(I3
S'|'
NNNI4
I1
I0
tbS'reut'
tRp230
I39170
tp231
a(g2
(g3
(S'S4'
I0
I1
tRp232
(I3
S'|'
NNNI4
I1
I0
tbS'rose'
tRp233
I38892
tp234
a(g2
(g3
(S'S6'
I0
I1
tRp235
(I3
S'|'
NNNI6
I1
I0
tbS'presid'
tRp236
I38506
tp237
a(g2
(g3
(S'S5'
I0
I1
tRp238
(I3
S'|'
NNNI5
I1
I0
tbS'index'
tRp239
I38435
tp240
a(g2
(g3
(S'S6'
I0
I1
tRp241
(I3
S'|'
NNNI6
I1
I0
tbS'minist'
tRp242
I38171
tp243
a(g2
(g3
(S'S5'
I0
I1
tRp244
(I3
S'|'
NNNI5
I1
I0
tbS'manag'
tRp245
I37949
tp246
a(g2
(g3
(S'S7'
I0
I1
tRp247
(I3
S'|'
NNNI7
I1
I0
tbS'increas'
tRp248
I37630
tp249
a(g2
(g3
(S'S6'
I0
I1
tRp250
(I3
S'|'
NNNI6
I1
I0
tbS'london'
tRp251
I37511
tp252
a(g2
(g3
(S'S4'
I0
I1
tRp253
(I3
S'|'
NNNI4
I1
I0
tbS'bond'
tRp254
I37293
tp255
a(g2
(g3
(S'S3'
I0
I1
tRp256
(I3
S'|'
NNNI3
I1
I0
tbS'new'
tRp257
I36517
tp258
a(g2
(g3
(S'S4'
I0
I1
tRp259
(I3
S'|'
NNNI4
I1
I0
tbS'larg'
tRp260
I36496
tp261
a(g2
(g3
(S'S4'
I0
I1
tRp262
(I3
S'|'
NNNI4
I1
I0
tbS'june'
tRp263
I36134
tp264
a(g2
(g3
(S'S6'
I0
I1
tRp265
(I3
S'|'
NNNI6
I1
I0
tbS'strong'
tRp266
I36053
tp267
a(g2
(g3
(S'S5'
I0
I1
tRp268
(I3
S'|'
NNNI5
I1
I0
tbS'gener'
tRp269
I35893
tp270
a(g2
(g3
(S'S4'
I0
I1
tRp271
(I3
S'|'
NNNI4
I1
I0
tbS'gain'
tRp272
I35688
tp273
a(g2
(g3
(S'S7'
I0
I1
tRp274
(I3
S'|'
NNNI7
I1
I0
tbS'foreign'
tRp275
I35597
tp276
a(g2
(g3
(S'S5'
I0
I1
tRp277
(I3
S'|'
NNNI5
I1
I0
tbS'start'
tRp278
I35489
tp279
a(g2
(g3
(S'S4'
I0
I1
tRp280
(I3
S'|'
NNNI4
I1
I0
tbS'prev'
tRp281
I35128
tp282
a(g2
(g3
(S'S4'
I0
I1
tRp283
(I3
S'|'
NNNI4
I1
I0
tbS'note'
tRp284
I34935
tp285
a(g2
(g3
(S'S5'
I0
I1
tRp286
(I3
S'|'
NNNI5
I1
I0
tbS'major'
tRp287
I34922
tp288
a(g2
(g3
(S'S4'
I0
I1
tRp289
(I3
S'|'
NNNI4
I1
I0
tbS'fall'
tRp290
I34814
tp291
a(g2
(g3
(S'S6'
I0
I1
tRp292
(I3
S'|'
NNNI6
I1
I0
tbS'recent'
tRp293
I34775
tp294
a(g2
(g3
(S'S6'
I0
I1
tRp295
(I3
S'|'
NNNI6
I1
I0
tbS'operat'
tRp296
I34741
tp297
a(g2
(g3
(S'S6'
I0
I1
tRp298
(I3
S'|'
NNNI6
I1
I0
tbS'direct'
tRp299
I34151
tp300
a(g2
(g3
(S'S5'
I0
I1
tRp301
(I3
S'|'
NNNI5
I1
I0
tbS'capit'
tRp302
I33546
tp303
a(g2
(g3
(S'S7'
I0
I1
tRp304
(I3
S'|'
NNNI7
I1
I0
tbS'announc'
tRp305
I33465
tp306
a(g2
(g3
(S'S7'
I0
I1
tRp307
(I3
S'|'
NNNI7
I1
I0
tbS'support'
tRp308
I33255
tp309
a(g2
(g3
(S'S6'
I0
I1
tRp310
(I3
S'|'
NNNI6
I1
I0
tbS'result'
tRp311
I33160
tp312
a(g2
(g3
(S'S4'
I0
I1
tRp313
(I3
S'|'
NNNI4
I1
I0
tbS'fell'
tRp314
I33149
tp315
a(g2
(g3
(S'S5'
I0
I1
tRp316
(I3
S'|'
NNNI5
I1
I0
tbS'short'
tRp317
I33123
tp318
a(g2
(g3
(S'S5'
I0
I1
tRp319
(I3
S'|'
NNNI5
I1
I0
tbS'peopl'
tRp320
I32984
tp321
a(g2
(g3
(S'S6'
I0
I1
tRp322
(I3
S'|'
NNNI6
I1
I0
tbS'dollar'
tRp323
I32976
tp324
a(g2
(g3
(S'S6'
I0
I1
tRp325
(I3
S'|'
NNNI6
I1
I0
tbS'countr'
tRp326
I32944
tp327
a(g2
(g3
(S'S4'
I0
I1
tRp328
(I3
S'|'
NNNI4
I1
I0
tbS'anal'
tRp329
I32832
tp330
a(g2
(g3
(S'S4'
I0
I1
tRp331
(I3
S'|'
NNNI4
I1
I0
tbS'corp'
tRp332
I32786
tp333
a(g2
(g3
(S'S4'
I0
I1
tRp334
(I3
S'|'
NNNI4
I1
I0
tbS'date'
tRp335
I32208
tp336
a(g2
(g3
(S'S4'
I0
I1
tRp337
(I3
S'|'
NNNI4
I1
I0
tbS'meet'
tRp338
I32083
tp339
a(g2
(g3
(S'S6'
I0
I1
tRp340
(I3
S'|'
NNNI6
I1
I0
tbS'demand'
tRp341
I32067
tp342
a(g2
(g3
(S'S4'
I0
I1
tRp343
(I3
S'|'
NNNI4
I1
I0
tbS'busi'
tRp344
I32065
tp345
a(g2
(g3
(S'S4'
I0
I1
tRp346
(I3
S'|'
NNNI4
I1
I0
tbS'show'
tRp347
I31717
tp348
a(g2
(g3
(S'S5'
I0
I1
tRp349
(I3
S'|'
NNNI5
I1
I0
tbS'chang'
tRp350
I31689
tp351
a(g2
(g3
(S'S4'
I0
I1
tRp352
(I3
S'|'
NNNI4
I1
I0
tbS'made'
tRp353
I31446
tp354
a(g2
(g3
(S'S5'
I0
I1
tRp355
(I3
S'|'
NNNI5
I1
I0
tbS'posit'
tRp356
I31407
tp357
a(g2
(g3
(S'S5'
I0
I1
tRp358
(I3
S'|'
NNNI5
I1
I0
tbS'agree'
tRp359
I30866
tp360
a(g2
(g3
(S'S4'
I0
I1
tRp361
(I3
S'|'
NNNI4
I1
I0
tbS'good'
tRp362
I30789
tp363
a(g2
(g3
(S'S5'
I0
I1
tRp364
(I3
S'|'
NNNI5
I1
I0
tbS'activ'
tRp365
I30685
tp366
a(g2
(g3
(S'S4'
I0
I1
tRp367
(I3
S'|'
NNNI4
I1
I0
tbS'july'
tRp368
I30529
tp369
a(g2
(g3
(S'S4'
I0
I1
tRp370
(I3
S'|'
NNNI4
I1
I0
tbS'york'
tRp371
I30470
tp372
a(g2
(g3
(S'S3'
I0
I1
tRp373
(I3
S'|'
NNNI3
I1
I0
tbS'pct'
tRp374
I30429
tp375
a(g2
(g3
(S'S5'
I0
I1
tRp376
(I3
S'|'
NNNI5
I1
I0
tbS'world'
tRp377
I30302
tp378
a(g2
(g3
(S'S3'
I0
I1
tRp379
(I3
S'|'
NNNI3
I1
I0
tbS'bid'
tRp380
I30056
tp381
a(g2
(g3
(S'S4'
I0
I1
tRp382
(I3
S'|'
NNNI4
I1
I0
tbS'part'
tRp383
I29307
tp384
a(g2
(g3
(S'S4'
I0
I1
tRp385
(I3
S'|'
NNNI4
I1
I0
tbS'play'
tRp386
I29228
tp387
a(g2
(g3
(S'S5'
I0
I1
tRp388
(I3
S'|'
NNNI5
I1
I0
tbS'march'
tRp389
I29107
tp390
a(g2
(g3
(S'S5'
I0
I1
tRp391
(I3
S'|'
NNNI5
I1
I0
tbS'volum'
tRp392
I29088
tp393
a(g2
(g3
(S'S6'
I0
I1
tRp394
(I3
S'|'
NNNI6
I1
I0
tbS'servic'
tRp395
I28589
tp396
a(g2
(g3
(S'S6'
I0
I1
tRp397
(I3
S'|'
NNNI6
I1
I0
tbS'commit'
tRp398
I28470
tp399
a(g2
(g3
(S'S6'
I0
I1
tRp400
(I3
S'|'
NNNI6
I1
I0
tbS'compar'
tRp401
I28456
tp402
a(g2
(g3
(S'S4'
I0
I1
tRp403
(I3
S'|'
NNNI4
I1
I0
tbS'fund'
tRp404
I28419
tp405
a(g2
(g3
(S'S3'
I0
I1
tRp406
(I3
S'|'
NNNI3
I1
I0
tbS'gmt'
tRp407
I28414
tp408
a(g2
(g3
(S'S4'
I0
I1
tRp409
(I3
S'|'
NNNI4
I1
I0
tbS'aver'
tRp410
I28330
tp411
a(g2
(g3
(S'S5'
I0
I1
tRp412
(I3
S'|'
NNNI5
I1
I0
tbS'april'
tRp413
I27806
tp414
a(g2
(g3
(S'S3'
I0
I1
tRp415
(I3
S'|'
NNNI3
I1
I0
tbS'big'
tRp416
I27499
tp417
a(g2
(g3
(S'S8'
I0
I1
tRp418
(I3
S'|'
NNNI8
I1
I0
tbS'contract'
tRp419
I27213
tp420
a(g2
(g3
(S'S4'
I0
I1
tRp421
(I3
S'|'
NNNI4
I1
I0
tbS'rang'
tRp422
I27179
tp423
a(g2
(g3
(S'S3'
I0
I1
tRp424
(I3
S'|'
NNNI3
I1
I0
tbS'ton'
tRp425
I27147
tp426
a(g2
(g3
(S'S4'
I0
I1
tRp427
(I3
S'|'
NNNI4
I1
I0
tbS'brok'
tRp428
I27054
tp429
a(g2
(g3
(S'S4'
I0
I1
tRp430
(I3
S'|'
NNNI4
I1
I0
tbS'work'
tRp431
I26922
tp432
a(g2
(g3
(S'S7'
I0
I1
tRp433
(I3
S'|'
NNNI7
I1
I0
tbS'septemb'
tRp434
I26605
tp435
a(g2
(g3
(S'S8'
I0
I1
tRp436
(I3
S'|'
NNNI8
I1
I0
tbS'european'
tRp437
I26541
tp438
a(g2
(g3
(S'S6'
I0
I1
tRp439
(I3
S'|'
NNNI6
I1
I0
tbS'decemb'
tRp440
I26379
tp441
a(g2
(g3
(S'S5'
I0
I1
tRp442
(I3
S'|'
NNNI5
I1
I0
tbS'polic'
tRp443
I26269
tp444
a(g2
(g3
(S'S5'
I0
I1
tRp445
(I3
S'|'
NNNI5
I1
I0
tbS'local'
tRp446
I26148
tp447
a(g2
(g3
(S'S7'
I0
I1
tRp448
(I3
S'|'
NNNI7
I1
I0
tbS'develop'
tRp449
I26104
tp450
a(g2
(g3
(S'S4'
I0
I1
tRp451
(I3
S'|'
NNNI4
I1
I0
tbS'weak'
tRp452
I25888
tp453
a(g2
(g3
(S'S5'
I0
I1
tRp454
(I3
S'|'
NNNI5
I1
I0
tbS'south'
tRp455
I25876
tp456
a(g2
(g3
(S'S3'
I0
I1
tRp457
(I3
S'|'
NNNI3
I1
I0
tbS'run'
tRp458
I25811
tp459
a(g2
(g3
(S'S4'
I0
I1
tRp460
(I3
S'|'
NNNI4
I1
I0
tbS'mark'
tRp461
I25777
tp462
a(g2
(g3
(S'S5'
I0
I1
tRp463
(I3
S'|'
NNNI5
I1
I0
tbS'decid'
tRp464
I25733
tp465
a(g2
(g3
(S'S5'
I0
I1
tRp466
(I3
S'|'
NNNI5
I1
I0
tbS'chief'
tRp467
I25657
tp468
a(g2
(g3
(S'S3'
I0
I1
tRp469
(I3
S'|'
NNNI3
I1
I0
tbS'off'
tRp470
I25645
tp471
a(g2
(g3
(S'S6'
I0
I1
tRp472
(I3
S'|'
NNNI6
I1
I0
tbS'americ'
tRp473
I25368
tp474
a(g2
(g3
(S'S3'
I0
I1
tRp475
(I3
S'|'
NNNI3
I1
I0
tbS'oil'
tRp476
I25341
tp477
a(g2
(g3
(S'S5'
I0
I1
tRp478
(I3
S'|'
NNNI5
I1
I0
tbS'suppl'
tRp479
I25260
tp480
a(g2
(g3
(S'S4'
I0
I1
tRp481
(I3
S'|'
NNNI4
I1
I0
tbS'numb'
tRp482
I24974
tp483
a(g2
(g3
(S'S5'
I0
I1
tRp484
(I3
S'|'
NNNI5
I1
I0
tbS'begin'
tRp485
I24946
tp486
a(g2
(g3
(S'S7'
I0
I1
tRp487
(I3
S'|'
NNNI7
I1
I0
tbS'current'
tRp488
I24940
tp489
a(g2
(g3
(S'S4'
I0
I1
tRp490
(I3
S'|'
NNNI4
I1
I0
tbS'talk'
tRp491
I24811
tp492
a(g2
(g3
(S'S4'
I0
I1
tRp493
(I3
S'|'
NNNI4
I1
I0
tbS'sign'
tRp494
I24587
tp495
a(g2
(g3
(S'S4'
I0
I1
tRp496
(I3
S'|'
NNNI4
I1
I0
tbS'head'
tRp497
I24578
tp498
a(g2
(g3
(S'S5'
I0
I1
tRp499
(I3
S'|'
NNNI5
I1
I0
tbS'ahead'
tRp500
I24541
tp501
a(g2
(g3
(S'S4'
I0
I1
tRp502
(I3
S'|'
NNNI4
I1
I0
tbS'prim'
tRp503
I24389
tp504
a(g2
(g3
(S'S6'
I0
I1
tRp505
(I3
S'|'
NNNI6
I1
I0
tbS'profit'
tRp506
I24212
tp507
a(g2
(g3
(S'S6'
I0
I1
tRp508
(I3
S'|'
NNNI6
I1
I0
tbS'import'
tRp509
I24201
tp510
a(g2
(g3
(S'S5'
I0
I1
tRp511
(I3
S'|'
NNNI5
I1
I0
tbS'money'
tRp512
I24149
tp513
a(g2
(g3
(S'S3'
I0
I1
tRp514
(I3
S'|'
NNNI3
I1
I0
tbS'put'
tRp515
I24119
tp516
a(g2
(g3
(S'S5'
I0
I1
tRp517
(I3
S'|'
NNNI5
I1
I0
tbS'today'
tRp518
I24097
tp519
a(g2
(g3
(S'S5'
I0
I1
tRp520
(I3
S'|'
NNNI5
I1
I0
tbS'figur'
tRp521
I24070
tp522
a(g2
(g3
(S'S4'
I0
I1
tRp523
(I3
S'|'
NNNI4
I1
I0
tbS'city'
tRp524
I23759
tp525
a(g2
(g3
(S'S4'
I0
I1
tRp526
(I3
S'|'
NNNI4
I1
I0
tbS'quot'
tRp527
I23754
tp528
a(g2
(g3
(S'S4'
I0
I1
tRp529
(I3
S'|'
NNNI4
I1
I0
tbS'held'
tRp530
I23732
tp531
a(g2
(g3
(S'S5'
I0
I1
tRp532
(I3
S'|'
NNNI5
I1
I0
tbS'quart'
tRp533
I23722
tp534
a(g2
(g3
(S'S6'
I0
I1
tRp535
(I3
S'|'
NNNI6
I1
I0
tbS'public'
tRp536
I23697
tp537
a(g2
(g3
(S'S5'
I0
I1
tRp538
(I3
S'|'
NNNI5
I1
I0
tbS'octob'
tRp539
I23685
tp540
a(g2
(g3
(S'S6'
I0
I1
tRp541
(I3
S'|'
NNNI6
I1
I0
tbS'export'
tRp542
I23664
tp543
a(g2
(g3
(S'S3'
I0
I1
tRp544
(I3
S'|'
NNNI3
I1
I0
tbS'top'
tRp545
I23513
tp546
a(g2
(g3
(S'S3'
I0
I1
tRp547
(I3
S'|'
NNNI3
I1
I0
tbS'ago'
tRp548
I23392
tp549
a(g2
(g3
(S'S5'
I0
I1
tRp550
(I3
S'|'
NNNI5
I1
I0
tbS'offer'
tRp551
I23231
tp552
a(g2
(g3
(S'S4'
I0
I1
tRp553
(I3
S'|'
NNNI4
I1
I0
tbS'list'
tRp554
I23189
tp555
a(g2
(g3
(S'S6'
I0
I1
tRp556
(I3
S'|'
NNNI6
I1
I0
tbS'declin'
tRp557
I23059
tp558
a(g2
(g3
(S'S5'
I0
I1
tRp559
(I3
S'|'
NNNI5
I1
I0
tbS'final'
tRp560
I23034
tp561
a(g2
(g3
(S'S5'
I0
I1
tRp562
(I3
S'|'
NNNI5
I1
I0
tbS'deliv'
tRp563
I22966
tp564
a(g2
(g3
(S'S4'
I0
I1
tRp565
(I3
S'|'
NNNI4
I1
I0
tbS'janu'
tRp566
I22918
tp567
a(g2
(g3
(S'S4'
I0
I1
tRp568
(I3
S'|'
NNNI4
I1
I0
tbS'take'
tRp569
I22879
tp570
a(g2
(g3
(S'S5'
I0
I1
tRp571
(I3
S'|'
NNNI5
I1
I0
tbS'yield'
tRp572
I22852
tp573
a(g2
(g3
(S'S5'
I0
I1
tRp574
(I3
S'|'
NNNI5
I1
I0
tbS'sourc'
tRp575
I22846
tp576
a(g2
(g3
(S'S4'
I0
I1
tRp577
(I3
S'|'
NNNI4
I1
I0
tbS'data'
tRp578
I22560
tp579
a(g2
(g3
(S'S3'
I0
I1
tRp580
(I3
S'|'
NNNI3
I1
I0
tbS'key'
tRp581
I22493
tp582
a(g2
(g3
(S'S4'
I0
I1
tRp583
(I3
S'|'
NNNI4
I1
I0
tbS'hous'
tRp584
I22463
tp585
a(g2
(g3
(S'S5'
I0
I1
tRp586
(I3
S'|'
NNNI5
I1
I0
tbS'board'
tRp587
I22316
tp588
a(g2
(g3
(S'S4'
I0
I1
tRp589
(I3
S'|'
NNNI4
I1
I0
tbS'forc'
tRp590
I22283
tp591
a(g2
(g3
(S'S6'
I0
I1
tRp592
(I3
S'|'
NNNI6
I1
I0
tbS'growth'
tRp593
I22251
tp594
a(g2
(g3
(S'S3'
I0
I1
tRp595
(I3
S'|'
NNNI3
I1
I0
tbS'own'
tRp596
I22139
tp597
a(g2
(g3
(S'S3'
I0
I1
tRp598
(I3
S'|'
NNNI3
I1
I0
tbS'win'
tRp599
I22071
tp600
a(g2
(g3
(S'S4'
I0
I1
tRp601
(I3
S'|'
NNNI4
I1
I0
tbS'half'
tRp602
I21986
tp603
a(g2
(g3
(S'S6'
I0
I1
tRp604
(I3
S'|'
NNNI6
I1
I0
tbS'novemb'
tRp605
I21978
tp606
a(g2
(g3
(S'S6'
I0
I1
tRp607
(I3
S'|'
NNNI6
I1
I0
tbS'period'
tRp608
I21807
tp609
a(g2
(g3
(S'S4'
I0
I1
tRp610
(I3
S'|'
NNNI4
I1
I0
tbS'rais'
tRp611
I21798
tp612
a(g2
(g3
(S'S4'
I0
I1
tRp613
(I3
S'|'
NNNI4
I1
I0
tbS'desk'
tRp614
I21709
tp615
a(g2
(g3
(S'S3'
I0
I1
tRp616
(I3
S'|'
NNNI3
I1
I0
tbS'won'
tRp617
I21583
tp618
a(g2
(g3
(S'S5'
I0
I1
tRp619
(I3
S'|'
NNNI5
I1
I0
tbS'techn'
tRp620
I21568
tp621
a(g2
(g3
(S'S4'
I0
I1
tRp622
(I3
S'|'
NNNI4
I1
I0
tbS'cash'
tRp623
I21560
tp624
a(g2
(g3
(S'S3'
I0
I1
tRp625
(I3
S'|'
NNNI3
I1
I0
tbS'cut'
tRp626
I21326
tp627
a(g2
(g3
(S'S6'
I0
I1
tRp628
(I3
S'|'
NNNI6
I1
I0
tbS'system'
tRp629
I21301
tp630
a(g2
(g3
(S'S4'
I0
I1
tRp631
(I3
S'|'
NNNI4
I1
I0
tbS'basi'
tRp632
I21149
tp633
a(g2
(g3
(S'S4'
I0
I1
tRp634
(I3
S'|'
NNNI4
I1
I0
tbS'cost'
tRp635
I21090
tp636
a(g2
(g3
(S'S5'
I0
I1
tRp637
(I3
S'|'
NNNI5
I1
I0
tbS'japan'
tRp638
I20961
tp639
a(g2
(g3
(S'S6'
I0
I1
tRp640
(I3
S'|'
NNNI6
I1
I0
tbS'slight'
tRp641
I20910
tp642
a(g2
(g3
(S'S8'
I0
I1
tRp643
(I3
S'|'
NNNI8
I1
I0
tbS'forecast'
tRp644
I20904
tp645
a(g2
(g3
(S'S7'
I0
I1
tRp646
(I3
S'|'
NNNI7
I1
I0
tbS'estimat'
tRp647
I20898
tp648
a(g2
(g3
(S'S5'
I0
I1
tRp649
(I3
S'|'
NNNI5
I1
I0
tbS'stead'
tRp650
I20893
tp651
a(g2
(g3
(S'S6'
I0
I1
tRp652
(I3
S'|'
NNNI6
I1
I0
tbS'record'
tRp653
I20861
tp654
a(g2
(g3
(S'S6'
I0
I1
tRp655
(I3
S'|'
NNNI6
I1
I0
tbS'august'
tRp656
I20783
tp657
a(g2
(g3
(S'S6'
I0
I1
tRp658
(I3
S'|'
NNNI6
I1
I0
tbS'sunday'
tRp659
I20727
tp660
a(g2
(g3
(S'S4'
I0
I1
tRp661
(I3
S'|'
NNNI4
I1
I0
tbS'rule'
tRp662
I20716
tp663
a(g2
(g3
(S'S6'
I0
I1
tRp664
(I3
S'|'
NNNI6
I1
I0
tbS'privat'
tRp665
I20713
tp666
a(g2
(g3
(S'S7'
I0
I1
tRp667
(I3
S'|'
NNNI7
I1
I0
tbS'unchang'
tRp668
I20499
tp669
a(g2
(g3
(S'S4'
I0
I1
tRp670
(I3
S'|'
NNNI4
I1
I0
tbS'line'
tRp671
I20375
tp672
a(g2
(g3
(S'S5'
I0
I1
tRp673
(I3
S'|'
NNNI5
I1
I0
tbS'agent'
tRp674
I20250
tp675
a(g2
(g3
(S'S3'
I0
I1
tRp676
(I3
S'|'
NNNI3
I1
I0
tbS'tax'
tRp677
I20238
tp678
a(g2
(g3
(S'S4'
I0
I1
tRp679
(I3
S'|'
NNNI4
I1
I0
tbS'home'
tRp680
I20162
tp681
a(g2
(g3
(S'S6'
I0
I1
tRp682
(I3
S'|'
NNNI6
I1
I0
tbS'reserv'
tRp683
I20150
tp684
a(g2
(g3
(S'S4'
I0
I1
tRp685
(I3
S'|'
NNNI4
I1
I0
tbS'drop'
tRp686
I20146
tp687
a(g2
(g3
(S'S4'
I0
I1
tRp688
(I3
S'|'
NNNI4
I1
I0
tbS'area'
tRp689
I20105
tp690
a(g2
(g3
(S'S7'
I0
I1
tRp691
(I3
S'|'
NNNI7
I1
I0
tbS'session'
tRp692
I20095
tp693
a(g2
(g3
(S'S5'
I0
I1
tRp694
(I3
S'|'
NNNI5
I1
I0
tbS'reach'
tRp695
I19994
tp696
a(g2
(g3
(S'S3'
I0
I1
tRp697
(I3
S'|'
NNNI3
I1
I0
tbS'hit'
tRp698
I19968
tp699
a(g2
(g3
(S'S5'
I0
I1
tRp700
(I3
S'|'
NNNI5
I1
I0
tbS'elect'
tRp701
I19949
tp702
a(g2
(g3
(S'S6'
I0
I1
tRp703
(I3
S'|'
NNNI6
I1
I0
tbS'annual'
tRp704
I19901
tp705
a(g2
(g3
(S'S7'
I0
I1
tRp706
(I3
S'|'
NNNI7
I1
I0
tbS'treasur'
tRp707
I19804
tp708
a(g2
(g3
(S'S4'
I0
I1
tRp709
(I3
S'|'
NNNI4
I1
I0
tbS'plac'
tRp710
I19782
tp711
a(g2
(g3
(S'S6'
I0
I1
tRp712
(I3
S'|'
NNNI6
I1
I0
tbS'releas'
tRp713
I19685
tp714
a(g2
(g3
(S'S4'
I0
I1
tRp715
(I3
S'|'
NNNI4
I1
I0
tbS'sect'
tRp716
I19602
tp717
a(g2
(g3
(S'S3'
I0
I1
tRp718
(I3
S'|'
NNNI3
I1
I0
tbS'pay'
tRp719
I19577
tp720
a(g2
(g3
(S'S5'
I0
I1
tRp721
(I3
S'|'
NNNI5
I1
I0
tbS'franc'
tRp722
I19515
tp723
a(g2
(g3
(S'S5'
I0
I1
tRp724
(I3
S'|'
NNNI5
I1
I0
tbS'party'
tRp725
I19481
tp726
a(g2
(g3
(S'S6'
I0
I1
tRp727
(I3
S'|'
NNNI6
I1
I0
tbS'region'
tRp728
I19437
tp729
a(g2
(g3
(S'S8'
I0
I1
tRp730
(I3
S'|'
NNNI8
I1
I0
tbS'saturday'
tRp731
I19186
tp732
a(g2
(g3
(S'S4'
I0
I1
tRp733
(I3
S'|'
NNNI4
I1
I0
tbS'memb'
tRp734
I19159
tp735
a(g2
(g3
(S'S5'
I0
I1
tRp736
(I3
S'|'
NNNI5
I1
I0
tbS'matur'
tRp737
I19155
tp738
a(g2
(g3
(S'S6'
I0
I1
tRp739
(I3
S'|'
NNNI6
I1
I0
tbS'execut'
tRp740
I19115
tp741
a(g2
(g3
(S'S4'
I0
I1
tRp742
(I3
S'|'
NNNI4
I1
I0
tbS'post'
tRp743
I19088
tp744
a(g2
(g3
(S'S3'
I0
I1
tRp745
(I3
S'|'
NNNI3
I1
I0
tbS'net'
tRp746
I19035
tp747
a(g2
(g3
(S'S3'
I0
I1
tRp748
(I3
S'|'
NNNI3
I1
I0
tbS'ord'
tRp749
I18994
tp750
a(g2
(g3
(S'S4'
I0
I1
tRp751
(I3
S'|'
NNNI4
I1
I0
tbS'bill'
tRp752
I18952
tp753
a(g2
(g3
(S'S6'
I0
I1
tRp754
(I3
S'|'
NNNI6
I1
I0
tbS'consum'
tRp755
I18920
tp756
a(g2
(g3
(S'S3'
I0
I1
tRp757
(I3
S'|'
NNNI3
I1
I0
tbS'pow'
tRp758
I18912
tp759
a(g2
(g3
(S'S6'
I0
I1
tRp760
(I3
S'|'
NNNI6
I1
I0
tbS'amount'
tRp761
I18812
tp762
a(g2
(g3
(S'S6'
I0
I1
tRp763
(I3
S'|'
NNNI6
I1
I0
tbS'domest'
tRp764
I18809
tp765
a(g2
(g3
(S'S7'
I0
I1
tRp766
(I3
S'|'
NNNI7
I1
I0
tbS'control'
tRp767
I18785
tp768
a(g2
(g3
(S'S7'
I0
I1
tRp769
(I3
S'|'
NNNI7
I1
I0
tbS'pressur'
tRp770
I18728
tp771
a(g2
(g3
(S'S3'
I0
I1
tRp772
(I3
S'|'
NNNI3
I1
I0
tbS'led'
tRp773
I18707
tp774
a(g2
(g3
(S'S3'
I0
I1
tRp775
(I3
S'|'
NNNI3
I1
I0
tbS'mln'
tRp776
I18674
tp777
a(g2
(g3
(S'S3'
I0
I1
tRp778
(I3
S'|'
NNNI3
I1
I0
tbS'lot'
tRp779
I18668
tp780
a(g2
(g3
(S'S4'
I0
I1
tRp781
(I3
S'|'
NNNI4
I1
I0
tbS'give'
tRp782
I18653
tp783
a(g2
(g3
(S'S4'
I0
I1
tRp784
(I3
S'|'
NNNI4
I1
I0
tbS'fact'
tRp785
I18628
tp786
a(g2
(g3
(S'S4'
I0
I1
tRp787
(I3
S'|'
NNNI4
I1
I0
tbS'sold'
tRp788
I18450
tp789
a(g2
(g3
(S'S4'
I0
I1
tRp790
(I3
S'|'
NNNI4
I1
I0
tbS'loss'
tRp791
I18375
tp792
a(g2
(g3
(S'S5'
I0
I1
tRp793
(I3
S'|'
NNNI5
I1
I0
tbS'sharp'
tRp794
I18358
tp795
a(g2
(g3
(S'S6'
I0
I1
tRp796
(I3
S'|'
NNNI6
I1
I0
tbS'chicag'
tRp797
I18329
tp798
a(g2
(g3
(S'S6'
I0
I1
tRp799
(I3
S'|'
NNNI6
I1
I0
tbS'return'
tRp800
I18188
tp801
a(g2
(g3
(S'S7'
I0
I1
tRp802
(I3
S'|'
NNNI7
I1
I0
tbS'comment'
tRp803
I18091
tp804
a(g2
(g3
(S'S6'
I0
I1
tRp805
(I3
S'|'
NNNI6
I1
I0
tbS'commun'
tRp806
I18058
tp807
a(g2
(g3
(S'S4'
I0
I1
tRp808
(I3
S'|'
NNNI4
I1
I0
tbS'past'
tRp809
I17911
tp810
a(g2
(g3
(S'S5'
I0
I1
tRp811
(I3
S'|'
NNNI5
I1
I0
tbS'limit'
tRp812
I17854
tp813
a(g2
(g3
(S'S7'
I0
I1
tRp814
(I3
S'|'
NNNI7
I1
I0
tbS'austral'
tRp815
I17779
tp816
a(g2
(g3
(S'S6'
I0
I1
tRp817
(I3
S'|'
NNNI6
I1
I0
tbS'chairm'
tRp818
I17763
tp819
a(g2
(g3
(S'S6'
I0
I1
tRp820
(I3
S'|'
NNNI6
I1
I0
tbS'effect'
tRp821
I17739
tp822
a(g2
(g3
(S'S5'
I0
I1
tRp823
(I3
S'|'
NNNI5
I1
I0
tbS'polit'
tRp824
I17699
tp825
a(g2
(g3
(S'S6'
I0
I1
tRp826
(I3
S'|'
NNNI6
I1
I0
tbS'provid'
tRp827
I17687
tp828
a(g2
(g3
(S'S7'
I0
I1
tRp829
(I3
S'|'
NNNI7
I1
I0
tbS'account'
tRp830
I17621
tp831
a(g2
(g3
(S'S4'
I0
I1
tRp832
(I3
S'|'
NNNI4
I1
I0
tbS'main'
tRp833
I17613
tp834
a(g2
(g3
(S'S5'
I0
I1
tRp835
(I3
S'|'
NNNI5
I1
I0
tbS'small'
tRp836
I17610
tp837
a(g2
(g3
(S'S5'
I0
I1
tRp838
(I3
S'|'
NNNI5
I1
I0
tbS'europ'
tRp839
I17605
tp840
a(g2
(g3
(S'S7'
I0
I1
tRp841
(I3
S'|'
NNNI7
I1
I0
tbS'spokesm'
tRp842
I17529
tp843
a(g2
(g3
(S'S7'
I0
I1
tRp844
(I3
S'|'
NNNI7
I1
I0
tbS'currenc'
tRp845
I17518
tp846
a(g2
(g3
(S'S4'
I0
I1
tRp847
(I3
S'|'
NNNI4
I1
I0
tbS'hope'
tRp848
I17501
tp849
a(g2
(g3
(S'S4'
I0
I1
tRp850
(I3
S'|'
NNNI4
I1
I0
tbS'grow'
tRp851
I17447
tp852
a(g2
(g3
(S'S5'
I0
I1
tRp853
(I3
S'|'
NNNI5
I1
I0
tbS'relat'
tRp854
I17415
tp855
a(g2
(g3
(S'S4'
I0
I1
tRp856
(I3
S'|'
NNNI4
I1
I0
tbS'left'
tRp857
I17277
tp858
a(g2
(g3
(S'S4'
I0
I1
tRp859
(I3
S'|'
NNNI4
I1
I0
tbS'morn'
tRp860
I17218
tp861
a(g2
(g3
(S'S5'
I0
I1
tRp862
(I3
S'|'
NNNI5
I1
I0
tbS'build'
tRp863
I17200
tp864
a(g2
(g3
(S'S4'
I0
I1
tRp865
(I3
S'|'
NNNI4
I1
I0
tbS'lost'
tRp866
I17123
tp867
a(g2
(g3
(S'S4'
I0
I1
tRp868
(I3
S'|'
NNNI4
I1
I0
tbS'form'
tRp869
I17123
tp870
a(g2
(g3
(S'S6'
I0
I1
tRp871
(I3
S'|'
NNNI6
I1
I0
tbS'compet'
tRp872
I17071
tp873
a(g2
(g3
(S'S7'
I0
I1
tRp874
(I3
S'|'
NNNI7
I1
I0
tbS'commerc'
tRp875
I16965
tp876
a(g2
(g3
(S'S6'
I0
I1
tRp877
(I3
S'|'
NNNI6
I1
I0
tbS'improv'
tRp878
I16849
tp879
a(g2
(g3
(S'S4'
I0
I1
tRp880
(I3
S'|'
NNNI4
I1
I0
tbS'full'
tRp881
I16826
tp882
a(g2
(g3
(S'S5'
I0
I1
tRp883
(I3
S'|'
NNNI5
I1
I0
tbS'daily'
tRp884
I16824
tp885
a(g2
(g3
(S'S6'
I0
I1
tRp886
(I3
S'|'
NNNI6
I1
I0
tbS'credit'
tRp887
I16821
tp888
a(g2
(g3
(S'S4'
I0
I1
tRp889
(I3
S'|'
NNNI4
I1
I0
tbS'debt'
tRp890
I16735
tp891
a(g2
(g3
(S'S5'
I0
I1
tRp892
(I3
S'|'
NNNI5
I1
I0
tbS'union'
tRp893
I16613
tp894
a(g2
(g3
(S'S4'
I0
I1
tRp895
(I3
S'|'
NNNI4
I1
I0
tbS'brit'
tRp896
I16447
tp897
a(g2
(g3
(S'S6'
I0
I1
tRp898
(I3
S'|'
NNNI6
I1
I0
tbS'author'
tRp899
I16333
tp900
a(g2
(g3
(S'S8'
I0
I1
tRp901
(I3
S'|'
NNNI8
I1
I0
tbS'institut'
tRp902
I16238
tp903
a(g2
(g3
(S'S6'
I0
I1
tRp904
(I3
S'|'
NNNI6
I1
I0
tbS'receiv'
tRp905
I16196
tp906
a(g2
(g3
(S'S7'
I0
I1
tRp907
(I3
S'|'
NNNI7
I1
I0
tbS'complet'
tRp908
I16123
tp909
a(g2
(g3
(S'S5'
I0
I1
tRp910
(I3
S'|'
NNNI5
I1
I0
tbS'boost'
tRp911
I16037
tp912
a(g2
(g3
(S'S4'
I0
I1
tRp913
(I3
S'|'
NNNI4
I1
I0
tbS'germ'
tRp914
I15998
tp915
a(g2
(g3
(S'S6'
I0
I1
tRp916
(I3
S'|'
NNNI6
I1
I0
tbS'corpor'
tRp917
I15945
tp918
a(g2
(g3
(S'S4'
I0
I1
tRp919
(I3
S'|'
NNNI4
I1
I0
tbS'sery'
tRp920
I15896
tp921
a(g2
(g3
(S'S6'
I0
I1
tRp922
(I3
S'|'
NNNI6
I1
I0
tbS'acquir'
tRp923
I15880
tp924
a(g2
(g3
(S'S4'
I0
I1
tRp925
(I3
S'|'
NNNI4
I1
I0
tbS'east'
tRp926
I15873
tp927
a(g2
(g3
(S'S5'
I0
I1
tRp928
(I3
S'|'
NNNI5
I1
I0
tbS'north'
tRp929
I15828
tp930
a(g2
(g3
(S'S4'
I0
I1
tRp931
(I3
S'|'
NNNI4
I1
I0
tbS'turn'
tRp932
I15767
tp933
a(g2
(g3
(S'S7'
I0
I1
tRp934
(I3
S'|'
NNNI7
I1
I0
tbS'concern'
tRp935
I15655
tp936
a(g2
(g3
(S'S4'
I0
I1
tRp937
(I3
S'|'
NNNI4
I1
I0
tbS'hand'
tRp938
I15541
tp939
a(g2
(g3
(S'S7'
I0
I1
tRp940
(I3
S'|'
NNNI7
I1
I0
tbS'indicat'
tRp941
I15515
tp942
a(g2
(g3
(S'S7'
I0
I1
tRp943
(I3
S'|'
NNNI7
I1
I0
tbS'problem'
tRp944
I15503
tp945
a(g2
(g3
(S'S6'
I0
I1
tRp946
(I3
S'|'
NNNI6
I1
I0
tbS'turnov'
tRp947
I15417
tp948
a(g2
(g3
(S'S6'
I0
I1
tRp949
(I3
S'|'
NNNI6
I1
I0
tbS'detail'
tRp950
I15255
tp951
a(g2
(g3
(S'S4'
I0
I1
tRp952
(I3
S'|'
NNNI4
I1
I0
tbS'chin'
tRp953
I15252
tp954
a(g2
(g3
(S'S5'
I0
I1
tRp955
(I3
S'|'
NNNI5
I1
I0
tbS'carry'
tRp956
I15238
tp957
a(g2
(g3
(S'S4'
I0
I1
tRp958
(I3
S'|'
NNNI4
I1
I0
tbS'earn'
tRp959
I15132
tp960
a(g2
(g3
(S'S4'
I0
I1
tRp961
(I3
S'|'
NNNI4
I1
I0
tbS'ship'
tRp962
I15103
tp963
a(g2
(g3
(S'S6'
I0
I1
tRp964
(I3
S'|'
NNNI6
I1
I0
tbS'approv'
tRp965
I15068
tp966
a(g2
(g3
(S'S4'
I0
I1
tRp967
(I3
S'|'
NNNI4
I1
I0
tbS'face'
tRp968
I15066
tp969
a(g2
(g3
(S'S4'
I0
I1
tRp970
(I3
S'|'
NNNI4
I1
I0
tbS'hour'
tRp971
I15052
tp972
a(g2
(g3
(S'S6'
I0
I1
tRp973
(I3
S'|'
NNNI6
I1
I0
tbS'confer'
tRp974
I15030
tp975
a(g2
(g3
(S'S5'
I0
I1
tRp976
(I3
S'|'
NNNI5
I1
I0
tbS'feder'
tRp977
I15017
tp978
a(g2
(g3
(S'S4'
I0
I1
tRp979
(I3
S'|'
NNNI4
I1
I0
tbS'slow'
tRp980
I14984
tp981
a(g2
(g3
(S'S4'
I0
I1
tRp982
(I3
S'|'
NNNI4
I1
I0
tbS'push'
tRp983
I14959
tp984
a(g2
(g3
(S'S5'
I0
I1
tRp985
(I3
S'|'
NNNI5
I1
I0
tbS'rally'
tRp986
I14933
tp987
a(g2
(g3
(S'S6'
I0
I1
tRp988
(I3
S'|'
NNNI6
I1
I0
tbS'inflat'
tRp989
I14828
tp990
a(g2
(g3
(S'S3'
I0
I1
tRp991
(I3
S'|'
NNNI3
I1
I0
tbS'don'
tRp992
I14792
tp993
a(g2
(g3
(S'S8'
I0
I1
tRp994
(I3
S'|'
NNNI8
I1
I0
tbS'strength'
tRp995
I14788
tp996
a(g2
(g3
(S'S7'
I0
I1
tRp997
(I3
S'|'
NNNI7
I1
I0
tbS'purchas'
tRp998
I14757
tp999
a(g2
(g3
(S'S4'
I0
I1
tRp1000
(I3
S'|'
NNNI4
I1
I0
tbS'west'
tRp1001
I14744
tp1002
a(g2
(g3
(S'S4'
I0
I1
tRp1003
(I3
S'|'
NNNI4
I1
I0
tbS'stak'
tRp1004
I14705
tp1005
a(g2
(g3
(S'S6'
I0
I1
tRp1006
(I3
S'|'
NNNI6
I1
I0
tbS'season'
tRp1007
I14697
tp1008
a(g2
(g3
(S'S5'
I0
I1
tRp1009
(I3
S'|'
NNNI5
I1
I0
tbS'febru'
tRp1010
I14692
tp1011
a(g2
(g3
(S'S5'
I0
I1
tRp1012
(I3
S'|'
NNNI5
I1
I0
tbS'match'
tRp1013
I14638
tp1014
a(g2
(g3
(S'S5'
I0
I1
tRp1015
(I3
S'|'
NNNI5
I1
I0
tbS'clear'
tRp1016
I14623
tp1017
a(g2
(g3
(S'S6'
I0
I1
tRp1018
(I3
S'|'
NNNI6
I1
I0
tbS'launch'
tRp1019
I14570
tp1020
a(g2
(g3
(S'S5'
I0
I1
tRp1021
(I3
S'|'
NNNI5
I1
I0
tbS'settl'
tRp1022
I14526
tp1023
a(g2
(g3
(S'S5'
I0
I1
tRp1024
(I3
S'|'
NNNI5
I1
I0
tbS'light'
tRp1025
I14504
tp1026
a(g2
(g3
(S'S4'
I0
I1
tRp1027
(I3
S'|'
NNNI4
I1
I0
tbS'side'
tRp1028
I14485
tp1029
a(g2
(g3
(S'S6'
I0
I1
tRp1030
(I3
S'|'
NNNI6
I1
I0
tbS'street'
tRp1031
I14473
tp1032
a(g2
(g3
(S'S3'
I0
I1
tRp1033
(I3
S'|'
NNNI3
I1
I0
tbS'war'
tRp1034
I14427
tp1035
a(g2
(g3
(S'S5'
I0
I1
tRp1036
(I3
S'|'
NNNI5
I1
I0
tbS'reduc'
tRp1037
I14413
tp1038
a(g2
(g3
(S'S6'
I0
I1
tRp1039
(I3
S'|'
NNNI6
I1
I0
tbS'senior'
tRp1040
I14394
tp1041
a(g2
(g3
(S'S6'
I0
I1
tRp1042
(I3
S'|'
NNNI6
I1
I0
tbS'balanc'
tRp1043
I14368
tp1044
a(g2
(g3
(S'S5'
I0
I1
tRp1045
(I3
S'|'
NNNI5
I1
I0
tbS'afric'
tRp1046
I14319
tp1047
a(g2
(g3
(S'S6'
I0
I1
tRp1048
(I3
S'|'
NNNI6
I1
I0
tbS'coupon'
tRp1049
I14268
tp1050
a(g2
(g3
(S'S7'
I0
I1
tRp1051
(I3
S'|'
NNNI7
I1
I0
tbS'program'
tRp1052
I14213
tp1053
a(g2
(g3
(S'S6'
I0
I1
tRp1054
(I3
S'|'
NNNI6
I1
I0
tbS'french'
tRp1055
I14126
tp1056
a(g2
(g3
(S'S4'
I0
I1
tRp1057
(I3
S'|'
NNNI4
I1
I0
tbS'help'
tRp1058
I14057
tp1059
a(g2
(g3
(S'S4'
I0
I1
tRp1060
(I3
S'|'
NNNI4
I1
I0
tbS'spot'
tRp1061
I14054
tp1062
a(g2
(g3
(S'S6'
I0
I1
tRp1063
(I3
S'|'
NNNI6
I1
I0
tbS'defend'
tRp1064
I14031
tp1065
a(g2
(g3
(S'S5'
I0
I1
tRp1066
(I3
S'|'
NNNI5
I1
I0
tbS'recov'
tRp1067
I13991
tp1068
a(g2
(g3
(S'S6'
I0
I1
tRp1069
(I3
S'|'
NNNI6
I1
I0
tbS'finish'
tRp1070
I13917
tp1071
a(g2
(g3
(S'S5'
I0
I1
tRp1072
(I3
S'|'
NNNI5
I1
I0
tbS'focus'
tRp1073
I13906
tp1074
a(g2
(g3
(S'S9'
I0
I1
tRp1075
(I3
S'|'
NNNI9
I1
I0
tbS'sharehold'
tRp1076
I13868
tp1077
a(g2
(g3
(S'S7'
I0
I1
tRp1078
(I3
S'|'
NNNI7
I1
I0
tbS'project'
tRp1079
I13852
tp1080
a(g2
(g3
(S'S4'
I0
I1
tRp1081
(I3
S'|'
NNNI4
I1
I0
tbS'vote'
tRp1082
I13848
tp1083
a(g2
(g3
(S'S6'
I0
I1
tRp1084
(I3
S'|'
NNNI6
I1
I0
tbS'specul'
tRp1085
I13791
tp1086
a(g2
(g3
(S'S7'
I0
I1
tRp1087
(I3
S'|'
NNNI7
I1
I0
tbS'schedul'
tRp1088
I13756
tp1089
a(g2
(g3
(S'S3'
I0
I1
tRp1090
(I3
S'|'
NNNI3
I1
I0
tbS'fix'
tRp1091
I13721
tp1092
a(g2
(g3
(S'S4'
I0
I1
tRp1093
(I3
S'|'
NNNI4
I1
I0
tbS'real'
tRp1094
I13693
tp1095
a(g2
(g3
(S'S5'
I0
I1
tRp1096
(I3
S'|'
NNNI5
I1
I0
tbS'trend'
tRp1097
I13639
tp1098
a(g2
(g3
(S'S2'
I0
I1
tRp1099
(I3
S'|'
NNNI2
I1
I0
tbS'de'
tRp1100
I13510
tp1101
a(g2
(g3
(S'S5'
I0
I1
tRp1102
(I3
S'|'
NNNI5
I1
I0
tbS'tight'
tRp1103
I13479
tp1104
a(g2
(g3
(S'S5'
I0
I1
tRp1105
(I3
S'|'
NNNI5
I1
I0
tbS'worth'
tRp1106
I13436
tp1107
a(g2
(g3
(S'S4'
I0
I1
tRp1108
(I3
S'|'
NNNI4
I1
I0
tbS'cond'
tRp1109
I13418
tp1110
a(g2
(g3
(S'S4'
I0
I1
tRp1111
(I3
S'|'
NNNI4
I1
I0
tbS'team'
tRp1112
I13403
tp1113
a(g2
(g3
(S'S3'
I0
I1
tRp1114
(I3
S'|'
NNNI3
I1
I0
tbS'eas'
tRp1115
I13397
tp1116
a(g2
(g3
(S'S6'
I0
I1
tRp1117
(I3
S'|'
NNNI6
I1
I0
tbS'spread'
tRp1118
I13386
tp1119
a(g2
(g3
(S'S6'
I0
I1
tRp1120
(I3
S'|'
NNNI6
I1
I0
tbS'target'
tRp1121
I13362
tp1122
a(g2
(g3
(S'S4'
I0
I1
tRp1123
(I3
S'|'
NNNI4
I1
I0
tbS'pape'
tRp1124
I13353
tp1125
a(g2
(g3
(S'S5'
I0
I1
tRp1126
(I3
S'|'
NNNI5
I1
I0
tbS'heavy'
tRp1127
I13252
tp1128
a(g2
(g3
(S'S5'
I0
I1
tRp1129
(I3
S'|'
NNNI5
I1
I0
tbS'divid'
tRp1130
I13189
tp1131
a(g2
(g3
(S'S5'
I0
I1
tRp1132
(I3
S'|'
NNNI5
I1
I0
tbS'assoc'
tRp1133
I13185
tp1134
a(g2
(g3
(S'S7'
I0
I1
tRp1135
(I3
S'|'
NNNI7
I1
I0
tbS'perform'
tRp1136
I13099
tp1137
a(g2
(g3
(S'S6'
I0
I1
tRp1138
(I3
S'|'
NNNI6
I1
I0
tbS'german'
tRp1139
I13076
tp1140
a(g2
(g3
(S'S9'
I0
I1
tRp1141
(I3
S'|'
NNNI9
I1
I0
tbS'afternoon'
tRp1142
I13065
tp1143
a(g2
(g3
(S'S6'
I0
I1
tRp1144
(I3
S'|'
NNNI6
I1
I0
tbS'revenu'
tRp1145
I13049
tp1146
a(g2
(g3
(S'S6'
I0
I1
tRp1147
(I3
S'|'
NNNI6
I1
I0
tbS'retail'
tRp1148
I12995
tp1149
a(g2
(g3
(S'S6'
I0
I1
tRp1150
(I3
S'|'
NNNI6
I1
I0
tbS'inform'
tRp1151
I12961
tp1152
a(g2
(g3
(S'S3'
I0
I1
tRp1153
(I3
S'|'
NNNI3
I1
I0
tbS'mid'
tRp1154
I12948
tp1155
a(g2
(g3
(S'S9'
I0
I1
tRp1156
(I3
S'|'
NNNI9
I1
I0
tbS'overnight'
tRp1157
I12943
tp1158
a(g2
(g3
(S'S5'
I0
I1
tRp1159
(I3
S'|'
NNNI5
I1
I0
tbS'count'
tRp1160
I12938
tp1161
a(g2
(g3
(S'S8'
I0
I1
tRp1162
(I3
S'|'
NNNI8
I1
I0
tbS'newsdesk'
tRp1163
I12850
tp1164
a(g2
(g3
(S'S7'
I0
I1
tRp1165
(I3
S'|'
NNNI7
I1
I0
tbS'confirm'
tRp1166
I12802
tp1167
a(g2
(g3
(S'S7'
I0
I1
tRp1168
(I3
S'|'
NNNI7
I1
I0
tbS'strateg'
tRp1169
I12793
tp1170
a(g2
(g3
(S'S6'
I0
I1
tRp1171
(I3
S'|'
NNNI6
I1
I0
tbS'parlia'
tRp1172
I12640
tp1173
a(g2
(g3
(S'S5'
I0
I1
tRp1174
(I3
S'|'
NNNI5
I1
I0
tbS'found'
tRp1175
I12635
tp1176
a(g2
(g3
(S'S5'
I0
I1
tRp1177
(I3
S'|'
NNNI5
I1
I0
tbS'great'
tRp1178
I12619
tp1179
a(g2
(g3
(S'S4'
I0
I1
tRp1180
(I3
S'|'
NNNI4
I1
I0
tbS'fail'
tRp1181
I12610
tp1182
a(g2
(g3
(S'S5'
I0
I1
tRp1183
(I3
S'|'
NNNI5
I1
I0
tbS'stabl'
tRp1184
I12585
tp1185
a(g2
(g3
(S'S7'
I0
I1
tRp1186
(I3
S'|'
NNNI7
I1
I0
tbS'present'
tRp1187
I12539
tp1188
a(g2
(g3
(S'S6'
I0
I1
tRp1189
(I3
S'|'
NNNI6
I1
I0
tbS'propos'
tRp1190
I12521
tp1191
a(g2
(g3
(S'S7'
I0
I1
tRp1192
(I3
S'|'
NNNI7
I1
I0
tbS'newspap'
tRp1193
I12493
tp1194
a(g2
(g3
(S'S5'
I0
I1
tRp1195
(I3
S'|'
NNNI5
I1
I0
tbS'canad'
tRp1196
I12451
tp1197
a(g2
(g3
(S'S7'
I0
I1
tRp1198
(I3
S'|'
NNNI7
I1
I0
tbS'success'
tRp1199
I12420
tp1200
a(g2
(g3
(S'S6'
I0
I1
tRp1201
(I3
S'|'
NNNI6
I1
I0
tbS'budget'
tRp1202
I12378
tp1203
a(g2
(g3
(S'S7'
I0
I1
tRp1204
(I3
S'|'
NNNI7
I1
I0
tbS'western'
tRp1205
I12365
tp1206
a(g2
(g3
(S'S2'
I0
I1
tRp1207
(I3
S'|'
NNNI2
I1
I0
tbS'st'
tRp1208
I12363
tp1209
a(g2
(g3
(S'S6'
I0
I1
tRp1210
(I3
S'|'
NNNI6
I1
I0
tbS'liquid'
tRp1211
I12318
tp1212
a(g2
(g3
(S'S4'
I0
I1
tRp1213
(I3
S'|'
NNNI4
I1
I0
tbS'come'
tRp1214
I12293
tp1215
a(g2
(g3
(S'S3'
I0
I1
tRp1216
(I3
S'|'
NNNI3
I1
I0
tbS'gas'
tRp1217
I12228
tp1218
a(g2
(g3
(S'S4'
I0
I1
tRp1219
(I3
S'|'
NNNI4
I1
I0
tbS'driv'
tRp1220
I12192
tp1221
a(g2
(g3
(S'S4'
I0
I1
tRp1222
(I3
S'|'
NNNI4
I1
I0
tbS'lose'
tRp1223
I12164
tp1224
a(g2
(g3
(S'S6'
I0
I1
tRp1225
(I3
S'|'
NNNI6
I1
I0
tbS'bought'
tRp1226
I12139
tp1227
a(g2
(g3
(S'S3'
I0
I1
tRp1228
(I3
S'|'
NNNI3
I1
I0
tbS'air'
tRp1229
I12125
tp1230
a(g2
(g3
(S'S5'
I0
I1
tRp1231
(I3
S'|'
NNNI5
I1
I0
tbS'charg'
tRp1232
I12100
tp1233
a(g2
(g3
(S'S4'
I0
I1
tRp1234
(I3
S'|'
NNNI4
I1
I0
tbS'gave'
tRp1235
I12097
tp1236
a(g2
(g3
(S'S4'
I0
I1
tRp1237
(I3
S'|'
NNNI4
I1
I0
tbS'wall'
tRp1238
I12063
tp1239
a(g2
(g3
(S'S6'
I0
I1
tRp1240
(I3
S'|'
NNNI6
I1
I0
tbS'option'
tRp1241
I12060
tp1242
a(g2
(g3
(S'S5'
I0
I1
tRp1243
(I3
S'|'
NNNI5
I1
I0
tbS'stand'
tRp1244
I12052
tp1245
a(g2
(g3
(S'S6'
I0
I1
tRp1246
(I3
S'|'
NNNI6
I1
I0
tbS'expand'
tRp1247
I12051
tp1248
a(g2
(g3
(S'S7'
I0
I1
tRp1249
(I3
S'|'
NNNI7
I1
I0
tbS'process'
tRp1250
I12039
tp1251
a(g2
(g3
(S'S4'
I0
I1
tRp1252
(I3
S'|'
NNNI4
I1
I0
tbS'free'
tRp1253
I12009
tp1254
a(g2
(g3
(S'S4'
I0
I1
tRp1255
(I3
S'|'
NNNI4
I1
I0
tbS'john'
tRp1256
I11993
tp1257
a(g2
(g3
(S'S7'
I0
I1
tRp1258
(I3
S'|'
NNNI7
I1
I0
tbS'weekend'
tRp1259
I11983
tp1260
a(g2
(g3
(S'S5'
I0
I1
tRp1261
(I3
S'|'
NNNI5
I1
I0
tbS'asset'
tRp1262
I11913
tp1263
a(g2
(g3
(S'S3'
I0
I1
tRp1264
(I3
S'|'
NNNI3
I1
I0
tbS'bln'
tRp1265
I11897
tp1266
a(g2
(g3
(S'S5'
I0
I1
tRp1267
(I3
S'|'
NNNI5
I1
I0
tbS'oppos'
tRp1268
I11884
tp1269
a(g2
(g3
(S'S4'
I0
I1
tRp1270
(I3
S'|'
NNNI4
I1
I0
tbS'seek'
tRp1271
I11865
tp1272
a(g2
(g3
(S'S4'
I0
I1
tRp1273
(I3
S'|'
NNNI4
I1
I0
tbS'test'
tRp1274
I11857
tp1275
a(g2
(g3
(S'S5'
I0
I1
tRp1276
(I3
S'|'
NNNI5
I1
I0
tbS'break'
tRp1277
I11792
tp1278
a(g2
(g3
(S'S7'
I0
I1
tRp1279
(I3
S'|'
NNNI7
I1
I0
tbS'special'
tRp1280
I11746
tp1281
a(g2
(g3
(S'S5'
I0
I1
tRp1282
(I3
S'|'
NNNI5
I1
I0
tbS'india'
tRp1283
I11737
tp1284
a(g2
(g3
(S'S5'
I0
I1
tRp1285
(I3
S'|'
NNNI5
I1
I0
tbS'round'
tRp1286
I11623
tp1287
a(g2
(g3
(S'S3'
I0
I1
tRp1288
(I3
S'|'
NNNI3
I1
I0
tbS'jan'
tRp1289
I11616
tp1290
a(g2
(g3
(S'S4'
I0
I1
tRp1291
(I3
S'|'
NNNI4
I1
I0
tbS'tend'
tRp1292
I11583
tp1293
a(g2
(g3
(S'S8'
I0
I1
tRp1294
(I3
S'|'
NNNI8
I1
I0
tbS'independ'
tRp1295
I11556
tp1296
a(g2
(g3
(S'S4'
I0
I1
tRp1297
(I3
S'|'
NNNI4
I1
I0
tbS'stay'
tRp1298
I11536
tp1299
a(g2
(g3
(S'S4'
I0
I1
tRp1300
(I3
S'|'
NNNI4
I1
I0
tbS'leav'
tRp1301
I11535
tp1302
a(g2
(g3
(S'S4'
I0
I1
tRp1303
(I3
S'|'
NNNI4
I1
I0
tbS'crud'
tRp1304
I11530
tp1305
a(g2
(g3
(S'S5'
I0
I1
tRp1306
(I3
S'|'
NNNI5
I1
I0
tbS'joint'
tRp1307
I11470
tp1308
a(g2
(g3
(S'S6'
I0
I1
tRp1309
(I3
S'|'
NNNI6
I1
I0
tbS'indian'
tRp1310
I11456
tp1311
a(g2
(g3
(S'S4'
I0
I1
tRp1312
(I3
S'|'
NNNI4
I1
I0
tbS'view'
tRp1313
I11429
tp1314
a(g2
(g3
(S'S4'
I0
I1
tRp1315
(I3
S'|'
NNNI4
I1
I0
tbS'gold'
tRp1316
I11427
tp1317
a(g2
(g3
(S'S6'
I0
I1
tRp1318
(I3
S'|'
NNNI6
I1
I0
tbS'advanc'
tRp1319
I11397
tp1320
a(g2
(g3
(S'S5'
I0
I1
tRp1321
(I3
S'|'
NNNI5
I1
I0
tbS'partn'
tRp1322
I11349
tp1323
a(g2
(g3
(S'S3'
I0
I1
tRp1324
(I3
S'|'
NNNI3
I1
I0
tbS'ask'
tRp1325
I11325
tp1326
a(g2
(g3
(S'S5'
I0
I1
tRp1327
(I3
S'|'
NNNI5
I1
I0
tbS'creat'
tRp1328
I11272
tp1329
a(g2
(g3
(S'S6'
I0
I1
tRp1330
(I3
S'|'
NNNI6
I1
I0
tbS'depart'
tRp1331
I11254
tp1332
a(g2
(g3
(S'S3'
I0
I1
tRp1333
(I3
S'|'
NNNI3
I1
I0
tbS'blu'
tRp1334
I11239
tp1335
a(g2
(g3
(S'S3'
I0
I1
tRp1336
(I3
S'|'
NNNI3
I1
I0
tbS'law'
tRp1337
I11191
tp1338
a(g2
(g3
(S'S6'
I0
I1
tRp1339
(I3
S'|'
NNNI6
I1
I0
tbS'extend'
tRp1340
I11155
tp1341
a(g2
(g3
(S'S6'
I0
I1
tRp1342
(I3
S'|'
NNNI6
I1
I0
tbS'confid'
tRp1343
I11149
tp1344
a(g2
(g3
(S'S4'
I0
I1
tRp1345
(I3
S'|'
NNNI4
I1
I0
tbS'amid'
tRp1346
I11148
tp1347
a(g2
(g3
(S'S6'
I0
I1
tRp1348
(I3
S'|'
NNNI6
I1
I0
tbS'appear'
tRp1349
I11141
tp1350
a(g2
(g3
(S'S4'
I0
I1
tRp1351
(I3
S'|'
NNNI4
I1
I0
tbS'chip'
tRp1352
I11103
tp1353
a(g2
(g3
(S'S5'
I0
I1
tRp1354
(I3
S'|'
NNNI5
I1
I0
tbS'energ'
tRp1355
I11100
tp1356
a(g2
(g3
(S'S4'
I0
I1
tRp1357
(I3
S'|'
NNNI4
I1
I0
tbS'game'
tRp1358
I11095
tp1359
a(g2
(g3
(S'S10'
I0
I1
tRp1360
(I3
S'|'
NNNI10
I1
I0
tbS'manufactur'
tRp1361
I11082
tp1362
a(g2
(g3
(S'S7'
I0
I1
tRp1363
(I3
S'|'
NNNI7
I1
I0
tbS'initial'
tRp1364
I11063
tp1365
a(g2
(g3
(S'S7'
I0
I1
tRp1366
(I3
S'|'
NNNI7
I1
I0
tbS'holiday'
tRp1367
I11049
tp1368
a(g2
(g3
(S'S3'
I0
I1
tRp1369
(I3
S'|'
NNNI3
I1
I0
tbS'met'
tRp1370
I11034
tp1371
a(g2
(g3
(S'S4'
I0
I1
tRp1372
(I3
S'|'
NNNI4
I1
I0
tbS'name'
tRp1373
I10991
tp1374
a(g2
(g3
(S'S4'
I0
I1
tRp1375
(I3
S'|'
NNNI4
I1
I0
tbS'food'
tRp1376
I10907
tp1377
a(g2
(g3
(S'S4'
I0
I1
tRp1378
(I3
S'|'
NNNI4
I1
I0
tbS'step'
tRp1379
I10892
tp1380
a(g2
(g3
(S'S7'
I0
I1
tRp1381
(I3
S'|'
NNNI7
I1
I0
tbS'britain'
tRp1382
I10888
tp1383
a(g2
(g3
(S'S4'
I0
I1
tRp1384
(I3
S'|'
NNNI4
I1
I0
tbS'fuel'
tRp1385
I10886
tp1386
a(g2
(g3
(S'S4'
I0
I1
tRp1387
(I3
S'|'
NNNI4
I1
I0
tbS'kill'
tRp1388
I10881
tp1389
a(g2
(g3
(S'S6'
I0
I1
tRp1390
(I3
S'|'
NNNI6
I1
I0
tbS'potent'
tRp1391
I10870
tp1392
a(g2
(g3
(S'S4'
I0
I1
tRp1393
(I3
S'|'
NNNI4
I1
I0
tbS'hard'
tRp1394
I10861
tp1395
a(g2
(g3
(S'S5'
I0
I1
tRp1396
(I3
S'|'
NNNI5
I1
I0
tbS'emerg'
tRp1397
I10858
tp1398
a(g2
(g3
(S'S5'
I0
I1
tRp1399
(I3
S'|'
NNNI5
I1
I0
tbS'bours'
tRp1400
I10841
tp1401
a(g2
(g3
(S'S5'
I0
I1
tRp1402
(I3
S'|'
NNNI5
I1
I0
tbS'quiet'
tRp1403
I10828
tp1404
a(g2
(g3
(S'S3'
I0
I1
tRp1405
(I3
S'|'
NNNI3
I1
I0
tbS'job'
tRp1406
I10817
tp1407
a(g2
(g3
(S'S4'
I0
I1
tRp1408
(I3
S'|'
NNNI4
I1
I0
tbS'glob'
tRp1409
I10812
tp1410
a(g2
(g3
(S'S5'
I0
I1
tRp1411
(I3
S'|'
NNNI5
I1
I0
tbS'monet'
tRp1412
I10772
tp1413
a(g2
(g3
(S'S7'
I0
I1
tRp1414
(I3
S'|'
NNNI7
I1
I0
tbS'discuss'
tRp1415
I10771
tp1416
a(g2
(g3
(S'S6'
I0
I1
tRp1417
(I3
S'|'
NNNI6
I1
I0
tbS'commod'
tRp1418
I10669
tp1419
a(g2
(g3
(S'S4'
I0
I1
tRp1420
(I3
S'|'
NNNI4
I1
I0
tbS'live'
tRp1421
I10650
tp1422
a(g2
(g3
(S'S5'
I0
I1
tRp1423
(I3
S'|'
NNNI5
I1
I0
tbS'minut'
tRp1424
I10642
tp1425
a(g2
(g3
(S'S9'
I0
I1
tRp1426
(I3
S'|'
NNNI9
I1
I0
tbS'benchmark'
tRp1427
I10603
tp1428
a(g2
(g3
(S'S6'
I0
I1
tRp1429
(I3
S'|'
NNNI6
I1
I0
tbS'reason'
tRp1430
I10596
tp1431
a(g2
(g3
(S'S4'
I0
I1
tRp1432
(I3
S'|'
NNNI4
I1
I0
tbS'book'
tRp1433
I10581
tp1434
a(g2
(g3
(S'S4'
I0
I1
tRp1435
(I3
S'|'
NNNI4
I1
I0
tbS'join'
tRp1436
I10546
tp1437
a(g2
(g3
(S'S6'
I0
I1
tRp1438
(I3
S'|'
NNNI6
I1
I0
tbS'employ'
tRp1439
I10545
tp1440
a(g2
(g3
(S'S6'
I0
I1
tRp1441
(I3
S'|'
NNNI6
I1
I0
tbS'health'
tRp1442
I10539
tp1443
a(g2
(g3
(S'S9'
I0
I1
tRp1444
(I3
S'|'
NNNI9
I1
I0
tbS'contribut'
tRp1445
I10526
tp1446
a(g2
(g3
(S'S4'
I0
I1
tRp1447
(I3
S'|'
NNNI4
I1
I0
tbS'flat'
tRp1448
I10518
tp1449
a(g2
(g3
(S'S8'
I0
I1
tRp1450
(I3
S'|'
NNNI8
I1
I0
tbS'standard'
tRp1451
I10515
tp1452
a(g2
(g3
(S'S4'
I0
I1
tRp1453
(I3
S'|'
NNNI4
I1
I0
tbS'socc'
tRp1454
I10504
tp1455
a(g2
(g3
(S'S2'
I0
I1
tRp1456
(I3
S'|'
NNNI2
I1
I0
tbS'uk'
tRp1457
I10501
tp1458
a(g2
(g3
(S'S4'
I0
I1
tRp1459
(I3
S'|'
NNNI4
I1
I0
tbS'beat'
tRp1460
I10495
tp1461
a(g2
(g3
(S'S5'
I0
I1
tRp1462
(I3
S'|'
NNNI5
I1
I0
tbS'bring'
tRp1463
I10477
tp1464
a(g2
(g3
(S'S4'
I0
I1
tRp1465
(I3
S'|'
NNNI4
I1
I0
tbS'poll'
tRp1466
I10476
tp1467
a(g2
(g3
(S'S3'
I0
I1
tRp1468
(I3
S'|'
NNNI3
I1
I0
tbS'yen'
tRp1469
I10470
tp1470
a(g2
(g3
(S'S5'
I0
I1
tRp1471
(I3
S'|'
NNNI5
I1
I0
tbS'equit'
tRp1472
I10461
tp1473
a(g2
(g3
(S'S4'
I0
I1
tRp1474
(I3
S'|'
NNNI4
I1
I0
tbS'fear'
tRp1475
I10453
tp1476
a(g2
(g3
(S'S4'
I0
I1
tRp1477
(I3
S'|'
NNNI4
I1
I0
tbS'slip'
tRp1478
I10447
tp1479
a(g2
(g3
(S'S6'
I0
I1
tRp1480
(I3
S'|'
NNNI6
I1
I0
tbS'requir'
tRp1481
I10432
tp1482
a(g2
(g3
(S'S3'
I0
I1
tRp1483
(I3
S'|'
NNNI3
I1
I0
tbS'dec'
tRp1484
I10427
tp1485
a(g2
(g3
(S'S3'
I0
I1
tRp1486
(I3
S'|'
NNNI3
I1
I0
tbS'mix'
tRp1487
I10408
tp1488
a(g2
(g3
(S'S4'
I0
I1
tRp1489
(I3
S'|'
NNNI4
I1
I0
tbS'wait'
tRp1490
I10390
tp1491
a(g2
(g3
(S'S7'
I0
I1
tRp1492
(I3
S'|'
NNNI7
I1
I0
tbS'involut'
tRp1493
I10385
tp1494
a(g2
(g3
(S'S7'
I0
I1
tRp1495
(I3
S'|'
NNNI7
I1
I0
tbS'reflect'
tRp1496
I10380
tp1497
a(g2
(g3
(S'S4'
I0
I1
tRp1498
(I3
S'|'
NNNI4
I1
I0
tbS'hong'
tRp1499
I10376
tp1500
a(g2
(g3
(S'S4'
I0
I1
tRp1501
(I3
S'|'
NNNI4
I1
I0
tbS'jump'
tRp1502
I10372
tp1503
a(g2
(g3
(S'S6'
I0
I1
tRp1504
(I3
S'|'
NNNI6
I1
I0
tbS'bureau'
tRp1505
I10354
tp1506
a(g2
(g3
(S'S4'
I0
I1
tRp1507
(I3
S'|'
NNNI4
I1
I0
tbS'prem'
tRp1508
I10319
tp1509
a(g2
(g3
(S'S3'
I0
I1
tRp1510
(I3
S'|'
NNNI3
I1
I0
tbS'oct'
tRp1511
I10315
tp1512
a(g2
(g3
(S'S3'
I0
I1
tRp1513
(I3
S'|'
NNNI3
I1
I0
tbS'sum'
tRp1514
I10270
tp1515
a(g2
(g3
(S'S5'
I0
I1
tRp1516
(I3
S'|'
NNNI5
I1
I0
tbS'negot'
tRp1517
I10270
tp1518
a(g2
(g3
(S'S6'
I0
I1
tRp1519
(I3
S'|'
NNNI6
I1
I0
tbS'measur'
tRp1520
I10267
tp1521
a(g2
(g3
(S'S8'
I0
I1
tRp1522
(I3
S'|'
NNNI8
I1
I0
tbS'research'
tRp1523
I10260
tp1524
a(g2
(g3
(S'S5'
I0
I1
tRp1525
(I3
S'|'
NNNI5
I1
I0
tbS'insur'
tRp1526
I10260
tp1527
a(g2
(g3
(S'S6'
I0
I1
tRp1528
(I3
S'|'
NNNI6
I1
I0
tbS'attack'
tRp1529
I10249
tp1530
a(g2
(g3
(S'S3'
I0
I1
tRp1531
(I3
S'|'
NNNI3
I1
I0
tbS'nov'
tRp1532
I10248
tp1533
a(g2
(g3
(S'S4'
I0
I1
tRp1534
(I3
S'|'
NNNI4
I1
I0
tbS'stop'
tRp1535
I10247
tp1536
a(g2
(g3
(S'S4'
I0
I1
tRp1537
(I3
S'|'
NNNI4
I1
I0
tbS'kong'
tRp1538
I10230
tp1539
a(g2
(g3
(S'S5'
I0
I1
tRp1540
(I3
S'|'
NNNI5
I1
I0
tbS'organ'
tRp1541
I10216
tp1542
a(g2
(g3
(S'S6'
I0
I1
tRp1543
(I3
S'|'
NNNI6
I1
I0
tbS'fourth'
tRp1544
I10208
tp1545
a(g2
(g3
(S'S6'
I0
I1
tRp1546
(I3
S'|'
NNNI6
I1
I0
tbS'custom'
tRp1547
I10191
tp1548
a(g2
(g3
(S'S4'
I0
I1
tRp1549
(I3
S'|'
NNNI4
I1
I0
tbS'draw'
tRp1550
I10171
tp1551
a(g2
(g3
(S'S4'
I0
I1
tRp1552
(I3
S'|'
NNNI4
I1
I0
tbS'valu'
tRp1553
I10143
tp1554
a(g2
(g3
(S'S4'
I0
I1
tRp1555
(I3
S'|'
NNNI4
I1
I0
tbS'loan'
tRp1556
I10129
tp1557
a(g2
(g3
(S'S3'
I0
I1
tRp1558
(I3
S'|'
NNNI3
I1
I0
tbS'aim'
tRp1559
I10096
tp1560
a(g2
(g3
(S'S4'
I0
I1
tRp1561
(I3
S'|'
NNNI4
I1
I0
tbS'surg'
tRp1562
I10070
tp1563
a(g2
(g3
(S'S5'
I0
I1
tRp1564
(I3
S'|'
NNNI5
I1
I0
tbS'fresh'
tRp1565
I10068
tp1566
a(g2
(g3
(S'S4'
I0
I1
tRp1567
(I3
S'|'
NNNI4
I1
I0
tbS'find'
tRp1568
I10062
tp1569
a(g2
(g3
(S'S4'
I0
I1
tRp1570
(I3
S'|'
NNNI4
I1
I0
tbS'poor'
tRp1571
I10053
tp1572
a(g2
(g3
(S'S6'
I0
I1
tRp1573
(I3
S'|'
NNNI6
I1
I0
tbS'action'
tRp1574
I9955
tp1575
a(g2
(g3
(S'S4'
I0
I1
tRp1576
(I3
S'|'
NNNI4
I1
I0
tbS'bear'
tRp1577
I9947
tp1578
a(g2
(g3
(S'S7'
I0
I1
tRp1579
(I3
S'|'
NNNI7
I1
I0
tbS'televis'
tRp1580
I9942
tp1581
a(g2
(g3
(S'S6'
I0
I1
tRp1582
(I3
S'|'
NNNI6
I1
I0
tbS'accept'
tRp1583
I9931
tp1584
a(g2
(g3
(S'S5'
I0
I1
tRp1585
(I3
S'|'
NNNI5
I1
I0
tbS'singl'
tRp1586
I9909
tp1587
a(g2
(g3
(S'S5'
I0
I1
tRp1588
(I3
S'|'
NNNI5
I1
I0
tbS'plant'
tRp1589
I9889
tp1590
a(g2
(g3
(S'S5'
I0
I1
tRp1591
(I3
S'|'
NNNI5
I1
I0
tbS'milit'
tRp1592
I9858
tp1593
a(g2
(g3
(S'S6'
I0
I1
tRp1594
(I3
S'|'
NNNI6
I1
I0
tbS'subsid'
tRp1595
I9823
tp1596
a(g2
(g3
(S'S5'
I0
I1
tRp1597
(I3
S'|'
NNNI5
I1
I0
tbS'moody'
tRp1598
I9819
tp1599
a(g2
(g3
(S'S7'
I0
I1
tRp1600
(I3
S'|'
NNNI7
I1
I0
tbS'municip'
tRp1601
I9803
tp1602
a(g2
(g3
(S'S6'
I0
I1
tRp1603
(I3
S'|'
NNNI6
I1
I0
tbS'republ'
tRp1604
I9802
tp1605
a(g2
(g3
(S'S3'
I0
I1
tRp1606
(I3
S'|'
NNNI3
I1
I0
tbS'bit'
tRp1607
I9719
tp1608
a(g2
(g3
(S'S8'
I0
I1
tRp1609
(I3
S'|'
NNNI8
I1
I0
tbS'singapor'
tRp1610
I9702
tp1611
a(g2
(g3
(S'S4'
I0
I1
tRp1612
(I3
S'|'
NNNI4
I1
I0
tbS'merg'
tRp1613
I9691
tp1614
a(g2
(g3
(S'S6'
I0
I1
tRp1615
(I3
S'|'
NNNI6
I1
I0
tbS'barrel'
tRp1616
I9679
tp1617
a(g2
(g3
(S'S5'
I0
I1
tRp1618
(I3
S'|'
NNNI5
I1
I0
tbS'champ'
tRp1619
I9674
tp1620
a(g2
(g3
(S'S6'
I0
I1
tRp1621
(I3
S'|'
NNNI6
I1
I0
tbS'belief'
tRp1622
I9652
tp1623
a(g2
(g3
(S'S3'
I0
I1
tRp1624
(I3
S'|'
NNNI3
I1
I0
tbS'fax'
tRp1625
I9638
tp1626
a(g2
(g3
(S'S5'
I0
I1
tRp1627
(I3
S'|'
NNNI5
I1
I0
tbS'refer'
tRp1628
I9616
tp1629
a(g2
(g3
(S'S7'
I0
I1
tRp1630
(I3
S'|'
NNNI7
I1
I0
tbS'forward'
tRp1631
I9612
tp1632
a(g2
(g3
(S'S4'
I0
I1
tRp1633
(I3
S'|'
NNNI4
I1
I0
tbS'scor'
tRp1634
I9611
tp1635
a(g2
(g3
(S'S4'
I0
I1
tRp1636
(I3
S'|'
NNNI4
I1
I0
tbS'sent'
tRp1637
I9606
tp1638
a(g2
(g3
(S'S5'
I0
I1
tRp1639
(I3
S'|'
NNNI5
I1
I0
tbS'fight'
tRp1640
I9606
tp1641
a(g2
(g3
(S'S4'
I0
I1
tRp1642
(I3
S'|'
NNNI4
I1
I0
tbS'port'
tRp1643
I9591
tp1644
a(g2
(g3
(S'S8'
I0
I1
tRp1645
(I3
S'|'
NNNI8
I1
I0
tbS'discount'
tRp1646
I9579
tp1647
a(g2
(g3
(S'S4'
I0
I1
tRp1648
(I3
S'|'
NNNI4
I1
I0
tbS'vict'
tRp1649
I9574
tp1650
a(g2
(g3
(S'S4'
I0
I1
tRp1651
(I3
S'|'
NNNI4
I1
I0
tbS'vice'
tRp1652
I9541
tp1653
a(g2
(g3
(S'S4'
I0
I1
tRp1654
(I3
S'|'
NNNI4
I1
I0
tbS'asia'
tRp1655
I9531
tp1656
a(g2
(g3
(S'S7'
I0
I1
tRp1657
(I3
S'|'
NNNI7
I1
I0
tbS'auction'
tRp1658
I9512
tp1659
a(g2
(g3
(S'S5'
I0
I1
tRp1660
(I3
S'|'
NNNI5
I1
I0
tbS'quest'
tRp1661
I9481
tp1662
a(g2
(g3
(S'S8'
I0
I1
tRp1663
(I3
S'|'
NNNI8
I1
I0
tbS'northern'
tRp1664
I9469
tp1665
a(g2
(g3
(S'S5'
I0
I1
tRp1666
(I3
S'|'
NNNI5
I1
I0
tbS'labor'
tRp1667
I9469
tp1668
a(g2
(g3
(S'S6'
I0
I1
tRp1669
(I3
S'|'
NNNI6
I1
I0
tbS'borrow'
tRp1670
I9425
tp1671
a(g2
(g3
(S'S5'
I0
I1
tRp1672
(I3
S'|'
NNNI5
I1
I0
tbS'thing'
tRp1673
I9412
tp1674
a(g2
(g3
(S'S6'
I0
I1
tRp1675
(I3
S'|'
NNNI6
I1
I0
tbS'secret'
tRp1676
I9410
tp1677
a(g2
(g3
(S'S6'
I0
I1
tRp1678
(I3
S'|'
NNNI6
I1
I0
tbS'common'
tRp1679
I9390
tp1680
a(g2
(g3
(S'S6'
I0
I1
tRp1681
(I3
S'|'
NNNI6
I1
I0
tbS'combin'
tRp1682
I9390
tp1683
a(g2
(g3
(S'S6'
I0
I1
tRp1684
(I3
S'|'
NNNI6
I1
I0
tbS'resist'
tRp1685
I9389
tp1686
a(g2
(g3
(S'S5'
I0
I1
tRp1687
(I3
S'|'
NNNI5
I1
I0
tbS'pound'
tRp1688
I9370
tp1689
a(g2
(g3
(S'S5'
I0
I1
tRp1690
(I3
S'|'
NNNI5
I1
I0
tbS'strik'
tRp1691
I9365
tp1692
a(g2
(g3
(S'S7'
I0
I1
tRp1693
(I3
S'|'
NNNI7
I1
I0
tbS'statist'
tRp1694
I9360
tp1695
a(g2
(g3
(S'S3'
I0
I1
tRp1696
(I3
S'|'
NNNI3
I1
I0
tbS'car'
tRp1697
I9340
tp1698
a(g2
(g3
(S'S4'
I0
I1
tRp1699
(I3
S'|'
NNNI4
I1
I0
tbS'case'
tRp1700
I9326
tp1701
a(g2
(g3
(S'S6'
I0
I1
tRp1702
(I3
S'|'
NNNI6
I1
I0
tbS'person'
tRp1703
I9274
tp1704
a(g2
(g3
(S'S6'
I0
I1
tRp1705
(I3
S'|'
NNNI6
I1
I0
tbS'repret'
tRp1706
I9237
tp1707
a(g2
(g3
(S'S7'
I0
I1
tRp1708
(I3
S'|'
NNNI7
I1
I0
tbS'deficit'
tRp1709
I9217
tp1710
a(g2
(g3
(S'S5'
I0
I1
tRp1711
(I3
S'|'
NNNI5
I1
I0
tbS'favor'
tRp1712
I9169
tp1713
a(g2
(g3
(S'S3'
I0
I1
tRp1714
(I3
S'|'
NNNI3
I1
I0
tbS'pre'
tRp1715
I9153
tp1716
a(g2
(g3
(S'S4'
I0
I1
tRp1717
(I3
S'|'
NNNI4
I1
I0
tbS'lack'
tRp1718
I9149
tp1719
a(g2
(g3
(S'S6'
I0
I1
tRp1720
(I3
S'|'
NNNI6
I1
I0
tbS'consid'
tRp1721
I9147
tp1722
a(g2
(g3
(S'S3'
I0
I1
tRp1723
(I3
S'|'
NNNI3
I1
I0
tbS'man'
tRp1724
I9138
tp1725
a(g2
(g3
(S'S4'
I0
I1
tRp1726
(I3
S'|'
NNNI4
I1
I0
tbS'pari'
tRp1727
I9133
tp1728
a(g2
(g3
(S'S6'
I0
I1
tRp1729
(I3
S'|'
NNNI6
I1
I0
tbS'ground'
tRp1730
I9120
tp1731
a(g2
(g3
(S'S6'
I0
I1
tRp1732
(I3
S'|'
NNNI6
I1
I0
tbS'impact'
tRp1733
I9105
tp1734
a(g2
(g3
(S'S4'
I0
I1
tRp1735
(I3
S'|'
NNNI4
I1
I0
tbS'stag'
tRp1736
I9101
tp1737
a(g2
(g3
(S'S8'
I0
I1
tRp1738
(I3
S'|'
NNNI8
I1
I0
tbS'construc'
tRp1739
I9070
tp1740
a(g2
(g3
(S'S7'
I0
I1
tRp1741
(I3
S'|'
NNNI7
I1
I0
tbS'suggest'
tRp1742
I9058
tp1743
a(g2
(g3
(S'S3'
I0
I1
tRp1744
(I3
S'|'
NNNI3
I1
I0
tbS'plc'
tRp1745
I9037
tp1746
a(g2
(g3
(S'S5'
I0
I1
tRp1747
(I3
S'|'
NNNI5
I1
I0
tbS'cover'
tRp1748
I9008
tp1749
a(g2
(g3
(S'S3'
I0
I1
tRp1750
(I3
S'|'
NNNI3
I1
I0
tbS'edg'
tRp1751
I9007
tp1752
a(g2
(g3
(S'S7'
I0
I1
tRp1753
(I3
S'|'
NNNI7
I1
I0
tbS'eastern'
tRp1754
I9006
tp1755
a(g2
(g3
(S'S8'
I0
I1
tRp1756
(I3
S'|'
NNNI8
I1
I0
tbS'southern'
tRp1757
I8993
tp1758
a(g2
(g3
(S'S5'
I0
I1
tRp1759
(I3
S'|'
NNNI5
I1
I0
tbS'arriv'
tRp1760
I8956
tp1761
a(g2
(g3
(S'S4'
I0
I1
tRp1762
(I3
S'|'
NNNI4
I1
I0
tbS'town'
tRp1763
I8946
tp1764
a(g2
(g3
(S'S5'
I0
I1
tRp1765
(I3
S'|'
NNNI5
I1
I0
tbS'trust'
tRp1766
I8928
tp1767
a(g2
(g3
(S'S5'
I0
I1
tRp1768
(I3
S'|'
NNNI5
I1
I0
tbS'chanc'
tRp1769
I8927
tp1770
a(g2
(g3
(S'S4'
I0
I1
tRp1771
(I3
S'|'
NNNI4
I1
I0
tbS'thin'
tRp1772
I8902
tp1773
a(g2
(g3
(S'S4'
I0
I1
tRp1774
(I3
S'|'
NNNI4
I1
I0
tbS'pick'
tRp1775
I8898
tp1776
a(g2
(g3
(S'S6'
I0
I1
tRp1777
(I3
S'|'
NNNI6
I1
I0
tbS'replac'
tRp1778
I8890
tp1779
a(g2
(g3
(S'S7'
I0
I1
tRp1780
(I3
S'|'
NNNI7
I1
I0
tbS'correct'
tRp1781
I8871
tp1782
a(g2
(g3
(S'S4'
I0
I1
tRp1783
(I3
S'|'
NNNI4
I1
I0
tbS'warn'
tRp1784
I8863
tp1785
a(g2
(g3
(S'S5'
I0
I1
tRp1786
(I3
S'|'
NNNI5
I1
I0
tbS'front'
tRp1787
I8849
tp1788
a(g2
(g3
(S'S5'
I0
I1
tRp1789
(I3
S'|'
NNNI5
I1
I0
tbS'david'
tRp1790
I8837
tp1791
a(g2
(g3
(S'S6'
I0
I1
tRp1792
(I3
S'|'
NNNI6
I1
I0
tbS'brazil'
tRp1793
I8833
tp1794
a(g2
(g3
(S'S5'
I0
I1
tRp1795
(I3
S'|'
NNNI5
I1
I0
tbS'incom'
tRp1796
I8793
tp1797
a(g2
(g3
(S'S4'
I0
I1
tRp1798
(I3
S'|'
NNNI4
I1
I0
tbS'life'
tRp1799
I8776
tp1800
a(g2
(g3
(S'S6'
I0
I1
tRp1801
(I3
S'|'
NNNI6
I1
I0
tbS'prepar'
tRp1802
I8768
tp1803
a(g2
(g3
(S'S7'
I0
I1
tRp1804
(I3
S'|'
NNNI7
I1
I0
tbS'russian'
tRp1805
I8762
tp1806
a(g2
(g3
(S'S7'
I0
I1
tRp1807
(I3
S'|'
NNNI7
I1
I0
tbS'attract'
tRp1808
I8759
tp1809
a(g2
(g3
(S'S4'
I0
I1
tRp1810
(I3
S'|'
NNNI4
I1
I0
tbS'rest'
tRp1811
I8729
tp1812
a(g2
(g3
(S'S4'
I0
I1
tRp1813
(I3
S'|'
NNNI4
I1
I0
tbS'link'
tRp1814
I8723
tp1815
a(g2
(g3
(S'S5'
I0
I1
tRp1816
(I3
S'|'
NNNI5
I1
I0
tbS'italy'
tRp1817
I8718
tp1818
a(g2
(g3
(S'S4'
I0
I1
tRp1819
(I3
S'|'
NNNI4
I1
I0
tbS'toky'
tRp1820
I8710
tp1821
a(g2
(g3
(S'S4'
I0
I1
tRp1822
(I3
S'|'
NNNI4
I1
I0
tbS'carg'
tRp1823
I8703
tp1824
a(g2
(g3
(S'S4'
I0
I1
tRp1825
(I3
S'|'
NNNI4
I1
I0
tbS'soft'
tRp1826
I8676
tp1827
a(g2
(g3
(S'S5'
I0
I1
tRp1828
(I3
S'|'
NNNI5
I1
I0
tbS'visit'
tRp1829
I8662
tp1830
a(g2
(g3
(S'S3'
I0
I1
tRp1831
(I3
S'|'
NNNI3
I1
I0
tbS'cup'
tRp1832
I8661
tp1833
a(g2
(g3
(S'S5'
I0
I1
tRp1834
(I3
S'|'
NNNI5
I1
I0
tbS'refin'
tRp1835
I8645
tp1836
a(g2
(g3
(S'S6'
I0
I1
tRp1837
(I3
S'|'
NNNI6
I1
I0
tbS'situat'
tRp1838
I8627
tp1839
a(g2
(g3
(S'S5'
I0
I1
tRp1840
(I3
S'|'
NNNI5
I1
I0
tbS'immed'
tRp1841
I8618
tp1842
a(g2
(g3
(S'S5'
I0
I1
tRp1843
(I3
S'|'
NNNI5
I1
I0
tbS'press'
tRp1844
I8614
tp1845
a(g2
(g3
(S'S8'
I0
I1
tRp1846
(I3
S'|'
NNNI8
I1
I0
tbS'telephon'
tRp1847
I8587
tp1848
a(g2
(g3
(S'S6'
I0
I1
tRp1849
(I3
S'|'
NNNI6
I1
I0
tbS'prompt'
tRp1850
I8580
tp1851
a(g2
(g3
(S'S6'
I0
I1
tRp1852
(I3
S'|'
NNNI6
I1
I0
tbS'margin'
tRp1853
I8572
tp1854
a(g2
(g3
(S'S6'
I0
I1
tRp1855
(I3
S'|'
NNNI6
I1
I0
tbS'weight'
tRp1856
I8566
tp1857
a(g2
(g3
(S'S6'
I0
I1
tRp1858
(I3
S'|'
NNNI6
I1
I0
tbS'output'
tRp1859
I8547
tp1860
a(g2
(g3
(S'S9'
I0
I1
tRp1861
(I3
S'|'
NNNI9
I1
I0
tbS'difficult'
tRp1862
I8537
tp1863
a(g2
(g3
(S'S6'
I0
I1
tRp1864
(I3
S'|'
NNNI6
I1
I0
tbS'effort'
tRp1865
I8531
tp1866
a(g2
(g3
(S'S4'
I0
I1
tRp1867
(I3
S'|'
NNNI4
I1
I0
tbS'paul'
tRp1868
I8464
tp1869
a(g2
(g3
(S'S6'
I0
I1
tRp1870
(I3
S'|'
NNNI6
I1
I0
tbS'electr'
tRp1871
I8463
tp1872
a(g2
(g3
(S'S5'
I0
I1
tRp1873
(I3
S'|'
NNNI5
I1
I0
tbS'deput'
tRp1874
I8456
tp1875
a(g2
(g3
(S'S7'
I0
I1
tRp1876
(I3
S'|'
NNNI7
I1
I0
tbS'possibl'
tRp1877
I8452
tp1878
a(g2
(g3
(S'S4'
I0
I1
tRp1879
(I3
S'|'
NNNI4
I1
I0
tbS'need'
tRp1880
I8441
tp1881
a(g2
(g3
(S'S5'
I0
I1
tRp1882
(I3
S'|'
NNNI5
I1
I0
tbS'allow'
tRp1883
I8413
tp1884
a(g2
(g3
(S'S5'
I0
I1
tRp1885
(I3
S'|'
NNNI5
I1
I0
tbS'delay'
tRp1886
I8403
tp1887
a(g2
(g3
(S'S4'
I0
I1
tRp1888
(I3
S'|'
NNNI4
I1
I0
tbS'bull'
tRp1889
I8366
tp1890
a(g2
(g3
(S'S5'
I0
I1
tRp1891
(I3
S'|'
NNNI5
I1
I0
tbS'exist'
tRp1892
I8357
tp1893
a(g2
(g3
(S'S4'
I0
I1
tRp1894
(I3
S'|'
NNNI4
I1
I0
tbS'pass'
tRp1895
I8355
tp1896
a(g2
(g3
(S'S4'
I0
I1
tRp1897
(I3
S'|'
NNNI4
I1
I0
tbS'serv'
tRp1898
I8340
tp1899
a(g2
(g3
(S'S7'
I0
I1
tRp1900
(I3
S'|'
NNNI7
I1
I0
tbS'deposit'
tRp1901
I8317
tp1902
a(g2
(g3
(S'S6'
I0
I1
tRp1903
(I3
S'|'
NNNI6
I1
I0
tbS'narrow'
tRp1904
I8309
tp1905
a(g2
(g3
(S'S6'
I0
I1
tRp1906
(I3
S'|'
NNNI6
I1
I0
tbS'threat'
tRp1907
I8306
tp1908
a(g2
(g3
(S'S5'
I0
I1
tRp1909
(I3
S'|'
NNNI5
I1
I0
tbS'spend'
tRp1910
I8294
tp1911
a(g2
(g3
(S'S5'
I0
I1
tRp1912
(I3
S'|'
NNNI5
I1
I0
tbS'claim'
tRp1913
I8270
tp1914
a(g2
(g3
(S'S4'
I0
I1
tRp1915
(I3
S'|'
NNNI4
I1
I0
tbS'flow'
tRp1916
I8268
tp1917
a(g2
(g3
(S'S7'
I0
I1
tRp1918
(I3
S'|'
NNNI7
I1
I0
tbS'respons'
tRp1919
I8262
tp1920
a(g2
(g3
(S'S5'
I0
I1
tRp1921
(I3
S'|'
NNNI5
I1
I0
tbS'wheat'
tRp1922
I8236
tp1923
a(g2
(g3
(S'S6'
I0
I1
tRp1924
(I3
S'|'
NNNI6
I1
I0
tbS'social'
tRp1925
I8195
tp1926
a(g2
(g3
(S'S9'
I0
I1
tRp1927
(I3
S'|'
NNNI9
I1
I0
tbS'interview'
tRp1928
I8190
tp1929
a(g2
(g3
(S'S5'
I0
I1
tRp1930
(I3
S'|'
NNNI5
I1
I0
tbS'mexic'
tRp1931
I8159
tp1932
a(g2
(g3
(S'S8'
I0
I1
tRp1933
(I3
S'|'
NNNI8
I1
I0
tbS'campaign'
tRp1934
I8158
tp1935
a(g2
(g3
(S'S4'
I0
I1
tRp1936
(I3
S'|'
NNNI4
I1
I0
tbS'sept'
tRp1937
I8156
tp1938
a(g2
(g3
(S'S6'
I0
I1
tRp1939
(I3
S'|'
NNNI6
I1
I0
tbS'origin'
tRp1940
I8155
tp1941
a(g2
(g3
(S'S6'
I0
I1
tRp1942
(I3
S'|'
NNNI6
I1
I0
tbS'signif'
tRp1943
I8140
tp1944
a(g2
(g3
(S'S6'
I0
I1
tRp1945
(I3
S'|'
NNNI6
I1
I0
tbS'russia'
tRp1946
I8138
tp1947
a(g2
(g3
(S'S5'
I0
I1
tRp1948
(I3
S'|'
NNNI5
I1
I0
tbS'broad'
tRp1949
I8138
tp1950
a(g2
(g3
(S'S4'
I0
I1
tRp1951
(I3
S'|'
NNNI4
I1
I0
tbS'stor'
tRp1952
I8130
tp1953
a(g2
(g3
(S'S5'
I0
I1
tRp1954
(I3
S'|'
NNNI5
I1
I0
tbS'rival'
tRp1955
I8118
tp1956
a(g2
(g3
(S'S5'
I0
I1
tRp1957
(I3
S'|'
NNNI5
I1
I0
tbS'media'
tRp1958
I8112
tp1959
a(g2
(g3
(S'S7'
I0
I1
tRp1960
(I3
S'|'
NNNI7
I1
I0
tbS'payment'
tRp1961
I8111
tp1962
a(g2
(g3
(S'S4'
I0
I1
tRp1963
(I3
S'|'
NNNI4
I1
I0
tbS'lift'
tRp1964
I8108
tp1965
a(g2
(g3
(S'S7'
I0
I1
tRp1966
(I3
S'|'
NNNI7
I1
I0
tbS'moderat'
tRp1967
I8101
tp1968
a(g2
(g3
(S'S5'
I0
I1
tRp1969
(I3
S'|'
NNNI5
I1
I0
tbS'night'
tRp1970
I8092
tp1971
a(g2
(g3
(S'S6'
I0
I1
tRp1972
(I3
S'|'
NNNI6
I1
I0
tbS'establ'
tRp1973
I8066
tp1974
a(g2
(g3
(S'S2'
I0
I1
tRp1975
(I3
S'|'
NNNI2
I1
I0
tbS've'
tRp1976
I8060
tp1977
a(g2
(g3
(S'S4'
I0
I1
tRp1978
(I3
S'|'
NNNI4
I1
I0
tbS'coal'
tRp1979
I8056
tp1980
a(g2
(g3
(S'S4'
I0
I1
tRp1981
(I3
S'|'
NNNI4
I1
I0
tbS'demo'
tRp1982
I8020
tp1983
a(g2
(g3
(S'S3'
I0
I1
tRp1984
(I3
S'|'
NNNI3
I1
I0
tbS'arm'
tRp1985
I8008
tp1986
a(g2
(g3
(S'S7'
I0
I1
tRp1987
(I3
S'|'
NNNI7
I1
I0
tbS'propert'
tRp1988
I8007
tp1989
a(g2
(g3
(S'S5'
I0
I1
tRp1990
(I3
S'|'
NNNI5
I1
I0
tbS'right'
tRp1991
I7997
tp1992
a(g2
(g3
(S'S3'
I0
I1
tRp1993
(I3
S'|'
NNNI3
I1
I0
tbS'ten'
tRp1994
I7979
tp1995
a(g2
(g3
(S'S7'
I0
I1
tRp1996
(I3
S'|'
NNNI7
I1
I0
tbS'separat'
tRp1997
I7977
tp1998
a(g2
(g3
(S'S4'
I0
I1
tRp1999
(I3
S'|'
NNNI4
I1
I0
tbS'usda'
tRp2000
I7951
tp2001
a(g2
(g3
(S'S8'
I0
I1
tRp2002
(I3
S'|'
NNNI8
I1
I0
tbS'consolid'
tRp2003
I7942
tp2004
a(g2
(g3
(S'S8'
I0
I1
tRp2005
(I3
S'|'
NNNI8
I1
I0
tbS'transact'
tRp2006
I7939
tp2007
a(g2
(g3
(S'S7'
I0
I1
tRp2008
(I3
S'|'
NNNI7
I1
I0
tbS'outlook'
tRp2009
I7935
tp2010
a(g2
(g3
(S'S4'
I0
I1
tRp2011
(I3
S'|'
NNNI4
I1
I0
tbS'mile'
tRp2012
I7923
tp2013
a(g2
(g3
(S'S4'
I0
I1
tRp2014
(I3
S'|'
NNNI4
I1
I0
tbS'risk'
tRp2015
I7912
tp2016
a(g2
(g3
(S'S2'
I0
I1
tRp2017
(I3
S'|'
NNNI2
I1
I0
tbS'yr'
tRp2018
I7872
tp2019
a(g2
(g3
(S'S5'
I0
I1
tRp2020
(I3
S'|'
NNNI5
I1
I0
tbS'court'
tRp2021
I7869
tp2022
a(g2
(g3
(S'S4'
I0
I1
tRp2023
(I3
S'|'
NNNI4
I1
I0
tbS'whit'
tRp2024
I7863
tp2025
a(g2
(g3
(S'S4'
I0
I1
tRp2026
(I3
S'|'
NNNI4
I1
I0
tbS'fire'
tRp2027
I7853
tp2028
a(g2
(g3
(S'S6'
I0
I1
tRp2029
(I3
S'|'
NNNI6
I1
I0
tbS'reform'
tRp2030
I7850
tp2031
a(g2
(g3
(S'S8'
I0
I1
tRp2032
(I3
S'|'
NNNI8
I1
I0
tbS'maintain'
tRp2033
I7811
tp2034
a(g2
(g3
(S'S6'
I0
I1
tRp2035
(I3
S'|'
NNNI6
I1
I0
tbS'survey'
tRp2036
I7805
tp2037
a(g2
(g3
(S'S8'
I0
I1
tRp2038
(I3
S'|'
NNNI8
I1
I0
tbS'administ'
tRp2039
I7796
tp2040
a(g2
(g3
(S'S4'
I0
I1
tRp2041
(I3
S'|'
NNNI4
I1
I0
tbS'goal'
tRp2042
I7789
tp2043
a(g2
(g3
(S'S3'
I0
I1
tRp2044
(I3
S'|'
NNNI3
I1
I0
tbS'act'
tRp2045
I7787
tp2046
a(g2
(g3
(S'S8'
I0
I1
tRp2047
(I3
S'|'
NNNI8
I1
I0
tbS'prospect'
tRp2048
I7779
tp2049
a(g2
(g3
(S'S6'
I0
I1
tRp2050
(I3
S'|'
NNNI6
I1
I0
tbS'robert'
tRp2051
I7761
tp2052
a(g2
(g3
(S'S5'
I0
I1
tRp2053
(I3
S'|'
NNNI5
I1
I0
tbS'capac'
tRp2054
I7733
tp2055
a(g2
(g3
(S'S7'
I0
I1
tRp2056
(I3
S'|'
NNNI7
I1
I0
tbS'council'
tRp2057
I7728
tp2058
a(g2
(g3
(S'S5'
I0
I1
tRp2059
(I3
S'|'
NNNI5
I1
I0
tbS'coast'
tRp2060
I7717
tp2061
a(g2
(g3
(S'S6'
I0
I1
tRp2062
(I3
S'|'
NNNI6
I1
I0
tbS'affect'
tRp2063
I7716
tp2064
a(g2
(g3
(S'S6'
I0
I1
tRp2065
(I3
S'|'
NNNI6
I1
I0
tbS'sydney'
tRp2066
I7710
tp2067
a(g2
(g3
(S'S7'
I0
I1
tRp2068
(I3
S'|'
NNNI7
I1
I0
tbS'predict'
tRp2069
I7708
tp2070
a(g2
(g3
(S'S8'
I0
I1
tRp2071
(I3
S'|'
NNNI8
I1
I0
tbS'opportun'
tRp2072
I7694
tp2073
a(g2
(g3
(S'S5'
I0
I1
tRp2074
(I3
S'|'
NNNI5
I1
I0
tbS'leagu'
tRp2075
I7691
tp2076
a(g2
(g3
(S'S5'
I0
I1
tRp2077
(I3
S'|'
NNNI5
I1
I0
tbS'facil'
tRp2078
I7691
tp2079
a(g2
(g3
(S'S3'
I0
I1
tRp2080
(I3
S'|'
NNNI3
I1
I0
tbS'amt'
tRp2081
I7682
tp2082
a(g2
(g3
(S'S3'
I0
I1
tRp2083
(I3
S'|'
NNNI3
I1
I0
tbS'aug'
tRp2084
I7671
tp2085
a(g2
(g3
(S'S5'
I0
I1
tRp2086
(I3
S'|'
NNNI5
I1
I0
tbS'rupee'
tRp2087
I7647
tp2088
a(g2
(g3
(S'S3'
I0
I1
tRp2089
(I3
S'|'
NNNI3
I1
I0
tbS'tie'
tRp2090
I7645
tp2091
a(g2
(g3
(S'S5'
I0
I1
tRp2092
(I3
S'|'
NNNI5
I1
I0
tbS'gross'
tRp2093
I7627
tp2094
a(g2
(g3
(S'S5'
I0
I1
tRp2095
(I3
S'|'
NNNI5
I1
I0
tbS'surpr'
tRp2096
I7601
tp2097
a(g2
(g3
(S'S5'
I0
I1
tRp2098
(I3
S'|'
NNNI5
I1
I0
tbS'middl'
tRp2099
I7593
tp2100
a(g2
(g3
(S'S4'
I0
I1
tRp2101
(I3
S'|'
NNNI4
I1
I0
tbS'morg'
tRp2102
I7586
tp2103
a(g2
(g3
(S'S4'
I0
I1
tRp2104
(I3
S'|'
NNNI4
I1
I0
tbS'save'
tRp2105
I7568
tp2106
a(g2
(g3
(S'S9'
I0
I1
tRp2107
(I3
S'|'
NNNI9
I1
I0
tbS'distribut'
tRp2108
I7561
tp2109
a(g2
(g3
(S'S7'
I0
I1
tRp2110
(I3
S'|'
NNNI7
I1
I0
tbS'weather'
tRp2111
I7560
tp2112
a(g2
(g3
(S'S7'
I0
I1
tRp2113
(I3
S'|'
NNNI7
I1
I0
tbS'italian'
tRp2114
I7556
tp2115
a(g2
(g3
(S'S5'
I0
I1
tRp2116
(I3
S'|'
NNNI5
I1
I0
tbS'asian'
tRp2117
I7555
tp2118
a(g2
(g3
(S'S4'
I0
I1
tRp2119
(I3
S'|'
NNNI4
I1
I0
tbS'fisc'
tRp2120
I7540
tp2121
a(g2
(g3
(S'S4'
I0
I1
tRp2122
(I3
S'|'
NNNI4
I1
I0
tbS'peac'
tRp2123
I7533
tp2124
a(g2
(g3
(S'S4'
I0
I1
tRp2125
(I3
S'|'
NNNI4
I1
I0
tbS'qual'
tRp2126
I7531
tp2127
a(g2
(g3
(S'S9'
I0
I1
tRp2128
(I3
S'|'
NNNI9
I1
I0
tbS'transport'
tRp2129
I7528
tp2130
a(g2
(g3
(S'S5'
I0
I1
tRp2131
(I3
S'|'
NNNI5
I1
I0
tbS'cross'
tRp2132
I7522
tp2133
a(g2
(g3
(S'S4'
I0
I1
tRp2134
(I3
S'|'
NNNI4
I1
I0
tbS'want'
tRp2135
I7507
tp2136
a(g2
(g3
(S'S3'
I0
I1
tRp2137
(I3
S'|'
NNNI3
I1
I0
tbS'typ'
tRp2138
I7507
tp2139
a(g2
(g3
(S'S7'
I0
I1
tRp2140
(I3
S'|'
NNNI7
I1
I0
tbS'subject'
tRp2141
I7506
tp2142
a(g2
(g3
(S'S8'
I0
I1
tRp2143
(I3
S'|'
NNNI8
I1
I0
tbS'particip'
tRp2144
I7500
tp2145
a(g2
(g3
(S'S6'
I0
I1
tRp2146
(I3
S'|'
NNNI6
I1
I0
tbS'beneex'
tRp2147
I7498
tp2148
a(g2
(g3
(S'S4'
I0
I1
tRp2149
(I3
S'|'
NNNI4
I1
I0
tbS'suff'
tRp2150
I7471
tp2151
a(g2
(g3
(S'S4'
I0
I1
tRp2152
(I3
S'|'
NNNI4
I1
I0
tbS'texa'
tRp2153
I7468
tp2154
a(g2
(g3
(S'S5'
I0
I1
tRp2155
(I3
S'|'
NNNI5
I1
I0
tbS'doubl'
tRp2156
I7462
tp2157
a(g2
(g3
(S'S5'
I0
I1
tRp2158
(I3
S'|'
NNNI5
I1
I0
tbS'simil'
tRp2159
I7433
tp2160
a(g2
(g3
(S'S5'
I0
I1
tRp2161
(I3
S'|'
NNNI5
I1
I0
tbS'metal'
tRp2162
I7425
tp2163
a(g2
(g3
(S'S5'
I0
I1
tRp2164
(I3
S'|'
NNNI5
I1
I0
tbS'worry'
tRp2165
I7404
tp2166
a(g2
(g3
(S'S4'
I0
I1
tRp2167
(I3
S'|'
NNNI4
I1
I0
tbS'fair'
tRp2168
I7373
tp2169
a(g2
(g3
(S'S5'
I0
I1
tRp2170
(I3
S'|'
NNNI5
I1
I0
tbS'watch'
tRp2171
I7370
tp2172
a(g2
(g3
(S'S5'
I0
I1
tRp2173
(I3
S'|'
NNNI5
I1
I0
tbS'speak'
tRp2174
I7367
tp2175
a(g2
(g3
(S'S6'
I0
I1
tRp2176
(I3
S'|'
NNNI6
I1
I0
tbS'select'
tRp2177
I7366
tp2178
a(g2
(g3
(S'S3'
I0
I1
tRp2179
(I3
S'|'
NNNI3
I1
I0
tbS'gdp'
tRp2180
I7361
tp2181
a(g2
(g3
(S'S4'
I0
I1
tRp2182
(I3
S'|'
NNNI4
I1
I0
tbS'land'
tRp2183
I7346
tp2184
a(g2
(g3
(S'S5'
I0
I1
tRp2185
(I3
S'|'
NNNI5
I1
I0
tbS'climb'
tRp2186
I7340
tp2187
a(g2
(g3
(S'S4'
I0
I1
tRp2188
(I3
S'|'
NNNI4
I1
I0
tbS'publ'
tRp2189
I7333
tp2190
a(g2
(g3
(S'S7'
I0
I1
tRp2191
(I3
S'|'
NNNI7
I1
I0
tbS'indones'
tRp2192
I7325
tp2193
a(g2
(g3
(S'S7'
I0
I1
tRp2194
(I3
S'|'
NNNI7
I1
I0
tbS'michael'
tRp2195
I7275
tp2196
a(g2
(g3
(S'S4'
I0
I1
tRp2197
(I3
S'|'
NNNI4
I1
I0
tbS'gulf'
tRp2198
I7274
tp2199
a(g2
(g3
(S'S3'
I0
I1
tRp2200
(I3
S'|'
NNNI3
I1
I0
tbS'see'
tRp2201
I7267
tp2202
a(g2
(g3
(S'S4'
I0
I1
tRp2203
(I3
S'|'
NNNI4
I1
I0
tbS'prov'
tRp2204
I7263
tp2205
a(g2
(g3
(S'S7'
I0
I1
tRp2206
(I3
S'|'
NNNI7
I1
I0
tbS'network'
tRp2207
I7249
tp2208
a(g2
(g3
(S'S5'
I0
I1
tRp2209
(I3
S'|'
NNNI5
I1
I0
tbS'injur'
tRp2210
I7247
tp2211
a(g2
(g3
(S'S7'
I0
I1
tRp2212
(I3
S'|'
NNNI7
I1
I0
tbS'regulat'
tRp2213
I7171
tp2214
a(g2
(g3
(S'S10'
I0
I1
tRp2215
(I3
S'|'
NNNI10
I1
I0
tbS'agricultur'
tRp2216
I7162
tp2217
a(g2
(g3
(S'S5'
I0
I1
tRp2218
(I3
S'|'
NNNI5
I1
I0
tbS'chart'
tRp2219
I7153
tp2220
a(g2
(g3
(S'S4'
I0
I1
tRp2221
(I3
S'|'
NNNI4
I1
I0
tbS'paid'
tRp2222
I7127
tp2223
a(g2
(g3
(S'S4'
I0
I1
tRp2224
(I3
S'|'
NNNI4
I1
I0
tbS'pack'
tRp2225
I7110
tp2226
a(g2
(g3
(S'S5'
I0
I1
tRp2227
(I3
S'|'
NNNI5
I1
I0
tbS'natur'
tRp2228
I7103
tp2229
a(g2
(g3
(S'S4'
I0
I1
tRp2230
(I3
S'|'
NNNI4
I1
I0
tbS'caus'
tRp2231
I7085
tp2232
a(g2
(g3
(S'S4'
I0
I1
tRp2233
(I3
S'|'
NNNI4
I1
I0
tbS'grad'
tRp2234
I7080
tp2235
a(g2
(g3
(S'S10'
I0
I1
tRp2236
(I3
S'|'
NNNI10
I1
I0
tbS'washington'
tRp2237
I7079
tp2238
a(g2
(g3
(S'S9'
I0
I1
tRp2239
(I3
S'|'
NNNI9
I1
I0
tbS'interbank'
tRp2240
I7078
tp2241
a(g2
(g3
(S'S6'
I0
I1
tRp2242
(I3
S'|'
NNNI6
I1
I0
tbS'adjust'
tRp2243
I7069
tp2244
a(g2
(g3
(S'S4'
I0
I1
tRp2245
(I3
S'|'
NNNI4
I1
I0
tbS'pete'
tRp2246
I7056
tp2247
a(g2
(g3
(S'S3'
I0
I1
tRp2248
(I3
S'|'
NNNI3
I1
I0
tbS'aid'
tRp2249
I7021
tp2250
a(g2
(g3
(S'S6'
I0
I1
tRp2251
(I3
S'|'
NNNI6
I1
I0
tbS'regist'
tRp2252
I7018
tp2253
a(g2
(g3
(S'S4'
I0
I1
tRp2254
(I3
S'|'
NNNI4
I1
I0
tbS'fast'
tRp2255
I7017
tp2256
a(g2
(g3
(S'S5'
I0
I1
tRp2257
(I3
S'|'
NNNI5
I1
I0
tbS'quick'
tRp2258
I7016
tp2259
a(g2
(g3
(S'S4'
I0
I1
tRp2260
(I3
S'|'
NNNI4
I1
I0
tbS'fami'
tRp2261
I6998
tp2262
a(g2
(g3
(S'S5'
I0
I1
tRp2263
(I3
S'|'
NNNI5
I1
I0
tbS'entry'
tRp2264
I6998
tp2265
a(g2
(g3
(S'S4'
I0
I1
tRp2266
(I3
S'|'
NNNI4
I1
I0
tbS'feel'
tRp2267
I6952
tp2268
a(g2
(g3
(S'S5'
I0
I1
tRp2269
(I3
S'|'
NNNI5
I1
I0
tbS'react'
tRp2270
I6940
tp2271
a(g2
(g3
(S'S7'
I0
I1
tRp2272
(I3
S'|'
NNNI7
I1
I0
tbS'england'
tRp2273
I6938
tp2274
a(g2
(g3
(S'S8'
I0
I1
tRp2275
(I3
S'|'
NNNI8
I1
I0
tbS'straight'
tRp2276
I6929
tp2277
a(g2
(g3
(S'S4'
I0
I1
tRp2278
(I3
S'|'
NNNI4
I1
I0
tbS'size'
tRp2279
I6929
tp2280
a(g2
(g3
(S'S4'
I0
I1
tRp2281
(I3
S'|'
NNNI4
I1
I0
tbS'lend'
tRp2282
I6929
tp2283
a(g2
(g3
(S'S6'
I0
I1
tRp2284
(I3
S'|'
NNNI6
I1
I0
tbS'comput'
tRp2285
I6916
tp2286
a(g2
(g3
(S'S4'
I0
I1
tRp2287
(I3
S'|'
NNNI4
I1
I0
tbS'slid'
tRp2288
I6902
tp2289
a(g2
(g3
(S'S4'
I0
I1
tRp2290
(I3
S'|'
NNNI4
I1
I0
tbS'deny'
tRp2291
I6893
tp2292
a(g2
(g3
(S'S3'
I0
I1
tRp2293
(I3
S'|'
NNNI3
I1
I0
tbS'fed'
tRp2294
I6877
tp2295
a(g2
(g3
(S'S4'
I0
I1
tRp2296
(I3
S'|'
NNNI4
I1
I0
tbS'mine'
tRp2297
I6869
tp2298
a(g2
(g3
(S'S6'
I0
I1
tRp2299
(I3
S'|'
NNNI6
I1
I0
tbS'featur'
tRp2300
I6864
tp2301
a(g2
(g3
(S'S4'
I0
I1
tRp2302
(I3
S'|'
NNNI4
I1
I0
tbS'norm'
tRp2303
I6854
tp2304
a(g2
(g3
(S'S5'
I0
I1
tRp2305
(I3
S'|'
NNNI5
I1
I0
tbS'resid'
tRp2306
I6830
tp2307
a(g2
(g3
(S'S7'
I0
I1
tRp2308
(I3
S'|'
NNNI7
I1
I0
tbS'generat'
tRp2309
I6824
tp2310
a(g2
(g3
(S'S5'
I0
I1
tRp2311
(I3
S'|'
NNNI5
I1
I0
tbS'treat'
tRp2312
I6813
tp2313
a(g2
(g3
(S'S2'
I0
I1
tRp2314
(I3
S'|'
NNNI2
I1
I0
tbS'km'
tRp2315
I6811
tp2316
a(g2
(g3
(S'S5'
I0
I1
tRp2317
(I3
S'|'
NNNI5
I1
I0
tbS'advis'
tRp2318
I6799
tp2319
a(g2
(g3
(S'S6'
I0
I1
tRp2320
(I3
S'|'
NNNI6
I1
I0
tbS'ventur'
tRp2321
I6798
tp2322
a(g2
(g3
(S'S3'
I0
I1
tRp2323
(I3
S'|'
NNNI3
I1
I0
tbS'red'
tRp2324
I6793
tp2325
a(g2
(g3
(S'S3'
I0
I1
tRp2326
(I3
S'|'
NNNI3
I1
I0
tbS'men'
tRp2327
I6790
tp2328
a(g2
(g3
(S'S5'
I0
I1
tRp2329
(I3
S'|'
NNNI5
I1
I0
tbS'revis'
tRp2330
I6764
tp2331
a(g2
(g3
(S'S8'
I0
I1
tRp2332
(I3
S'|'
NNNI8
I1
I0
tbS'electron'
tRp2333
I6751
tp2334
a(g2
(g3
(S'S5'
I0
I1
tRp2335
(I3
S'|'
NNNI5
I1
I0
tbS'award'
tRp2336
I6749
tp2337
a(g2
(g3
(S'S5'
I0
I1
tRp2338
(I3
S'|'
NNNI5
I1
I0
tbS'resum'
tRp2339
I6738
tp2340
a(g2
(g3
(S'S6'
I0
I1
tRp2341
(I3
S'|'
NNNI6
I1
I0
tbS'differ'
tRp2342
I6733
tp2343
a(g2
(g3
(S'S7'
I0
I1
tRp2344
(I3
S'|'
NNNI7
I1
I0
tbS'attempt'
tRp2345
I6731
tp2346
a(g2
(g3
(S'S4'
I0
I1
tRp2347
(I3
S'|'
NNNI4
I1
I0
tbS'pull'
tRp2348
I6729
tp2349
a(g2
(g3
(S'S3'
I0
I1
tRp2350
(I3
S'|'
NNNI3
I1
I0
tbS'fob'
tRp2351
I6727
tp2352
a(g2
(g3
(S'S5'
I0
I1
tRp2353
(I3
S'|'
NNNI5
I1
I0
tbS'stood'
tRp2354
I6717
tp2355
a(g2
(g3
(S'S8'
I0
I1
tRp2356
(I3
S'|'
NNNI8
I1
I0
tbS'district'
tRp2357
I6710
tp2358
a(g2
(g3
(S'S5'
I0
I1
tRp2359
(I3
S'|'
NNNI5
I1
I0
tbS'spain'
tRp2360
I6696
tp2361
a(g2
(g3
(S'S2'
I0
I1
tRp2362
(I3
S'|'
NNNI2
I1
I0
tbS'kg'
tRp2363
I6692
tp2364
a(g2
(g3
(S'S4'
I0
I1
tRp2365
(I3
S'|'
NNNI4
I1
I0
tbS'club'
tRp2366
I6667
tp2367
a(g2
(g3
(S'S6'
I0
I1
tRp2368
(I3
S'|'
NNNI6
I1
I0
tbS'physic'
tRp2369
I6663
tp2370
a(g2
(g3
(S'S3'
I0
I1
tRp2371
(I3
S'|'
NNNI3
I1
I0
tbS'dow'
tRp2372
I6649
tp2373
a(g2
(g3
(S'S4'
I0
I1
tRp2374
(I3
S'|'
NNNI4
I1
I0
tbS'load'
tRp2375
I6641
tp2376
a(g2
(g3
(S'S3'
I0
I1
tRp2377
(I3
S'|'
NNNI3
I1
I0
tbS'hap'
tRp2378
I6622
tp2379
a(g2
(g3
(S'S6'
I0
I1
tRp2380
(I3
S'|'
NNNI6
I1
I0
tbS'island'
tRp2381
I6617
tp2382
a(g2
(g3
(S'S7'
I0
I1
tRp2383
(I3
S'|'
NNNI7
I1
I0
tbS'express'
tRp2384
I6615
tp2385
a(g2
(g3
(S'S3'
I0
I1
tRp2386
(I3
S'|'
NNNI3
I1
I0
tbS'wat'
tRp2387
I6606
tp2388
a(g2
(g3
(S'S5'
I0
I1
tRp2389
(I3
S'|'
NNNI5
I1
I0
tbS'pacif'
tRp2390
I6573
tp2391
a(g2
(g3
(S'S4'
I0
I1
tRp2392
(I3
S'|'
NNNI4
I1
I0
tbS'coop'
tRp2393
I6554
tp2394
a(g2
(g3
(S'S4'
I0
I1
tRp2395
(I3
S'|'
NNNI4
I1
I0
tbS'mill'
tRp2396
I6553
tp2397
a(g2
(g3
(S'S3'
I0
I1
tRp2398
(I3
S'|'
NNNI3
I1
I0
tbS'wid'
tRp2399
I6552
tp2400
a(g2
(g3
(S'S6'
I0
I1
tRp2401
(I3
S'|'
NNNI6
I1
I0
tbS'school'
tRp2402
I6532
tp2403
a(g2
(g3
(S'S5'
I0
I1
tRp2404
(I3
S'|'
NNNI5
I1
I0
tbS'mater'
tRp2405
I6526
tp2406
a(g2
(g3
(S'S8'
I0
I1
tRp2407
(I3
S'|'
NNNI8
I1
I0
tbS'argentin'
tRp2408
I6519
tp2409
a(g2
(g3
(S'S5'
I0
I1
tRp2410
(I3
S'|'
NNNI5
I1
I0
tbS'track'
tRp2411
I6517
tp2412
a(g2
(g3
(S'S4'
I0
I1
tRp2413
(I3
S'|'
NNNI4
I1
I0
tbS'seat'
tRp2414
I6508
tp2415
a(g2
(g3
(S'S5'
I0
I1
tRp2416
(I3
S'|'
NNNI5
I1
I0
tbS'swiss'
tRp2417
I6505
tp2418
a(g2
(g3
(S'S6'
I0
I1
tRp2419
(I3
S'|'
NNNI6
I1
I0
tbS'bombay'
tRp2420
I6505
tp2421
a(g2
(g3
(S'S4'
I0
I1
tRp2422
(I3
S'|'
NNNI4
I1
I0
tbS'swed'
tRp2423
I6491
tp2424
a(g2
(g3
(S'S5'
I0
I1
tRp2425
(I3
S'|'
NNNI5
I1
I0
tbS'civil'
tRp2426
I6489
tp2427
a(g2
(g3
(S'S5'
I0
I1
tRp2428
(I3
S'|'
NNNI5
I1
I0
tbS'georg'
tRp2429
I6485
tp2430
a(g2
(g3
(S'S5'
I0
I1
tRp2431
(I3
S'|'
NNNI5
I1
I0
tbS'equip'
tRp2432
I6457
tp2433
a(g2
(g3
(S'S4'
I0
I1
tRp2434
(I3
S'|'
NNNI4
I1
I0
tbS'shot'
tRp2435
I6454
tp2436
a(g2
(g3
(S'S6'
I0
I1
tRp2437
(I3
S'|'
NNNI6
I1
I0
tbS'overse'
tRp2438
I6432
tp2439
a(g2
(g3
(S'S4'
I0
I1
tRp2440
(I3
S'|'
NNNI4
I1
I0
tbS'util'
tRp2441
I6415
tp2442
a(g2
(g3
(S'S5'
I0
I1
tRp2443
(I3
S'|'
NNNI5
I1
I0
tbS'grain'
tRp2444
I6414
tp2445
a(g2
(g3
(S'S4'
I0
I1
tRp2446
(I3
S'|'
NNNI4
I1
I0
tbS'cove'
tRp2447
I6412
tp2448
a(g2
(g3
(S'S7'
I0
I1
tRp2449
(I3
S'|'
NNNI7
I1
I0
tbS'provinc'
tRp2450
I6386
tp2451
a(g2
(g3
(S'S5'
I0
I1
tRp2452
(I3
S'|'
NNNI5
I1
I0
tbS'minim'
tRp2453
I6368
tp2454
a(g2
(g3
(S'S5'
I0
I1
tRp2455
(I3
S'|'
NNNI5
I1
I0
tbS'crown'
tRp2456
I6360
tp2457
a(g2
(g3
(S'S6'
I0
I1
tRp2458
(I3
S'|'
NNNI6
I1
I0
tbS'broker'
tRp2459
I6343
tp2460
a(g2
(g3
(S'S4'
I0
I1
tRp2461
(I3
S'|'
NNNI4
I1
I0
tbS'race'
tRp2462
I6335
tp2463
a(g2
(g3
(S'S5'
I0
I1
tRp2464
(I3
S'|'
NNNI5
I1
I0
tbS'negat'
tRp2465
I6326
tp2466
a(g2
(g3
(S'S5'
I0
I1
tRp2467
(I3
S'|'
NNNI5
I1
I0
tbS'dutch'
tRp2468
I6322
tp2469
a(g2
(g3
(S'S6'
I0
I1
tRp2470
(I3
S'|'
NNNI6
I1
I0
tbS'malays'
tRp2471
I6317
tp2472
a(g2
(g3
(S'S7'
I0
I1
tRp2473
(I3
S'|'
NNNI7
I1
I0
tbS'brought'
tRp2474
I6305
tp2475
a(g2
(g3
(S'S5'
I0
I1
tRp2476
(I3
S'|'
NNNI5
I1
I0
tbS'event'
tRp2477
I6300
tp2478
a(g2
(g3
(S'S5'
I0
I1
tRp2479
(I3
S'|'
NNNI5
I1
I0
tbS'field'
tRp2480
I6299
tp2481
a(g2
(g3
(S'S4'
I0
I1
tRp2482
(I3
S'|'
NNNI4
I1
I0
tbS'mean'
tRp2483
I6288
tp2484
a(g2
(g3
(S'S7'
I0
I1
tRp2485
(I3
S'|'
NNNI7
I1
I0
tbS'appoint'
tRp2486
I6286
tp2487
a(g2
(g3
(S'S7'
I0
I1
tRp2488
(I3
S'|'
NNNI7
I1
I0
tbS'volatil'
tRp2489
I6271
tp2490
a(g2
(g3
(S'S4'
I0
I1
tRp2491
(I3
S'|'
NNNI4
I1
I0
tbS'tour'
tRp2492
I6256
tp2493
a(g2
(g3
(S'S5'
I0
I1
tRp2494
(I3
S'|'
NNNI5
I1
I0
tbS'giant'
tRp2495
I6256
tp2496
a(g2
(g3
(S'S4'
I0
I1
tRp2497
(I3
S'|'
NNNI4
I1
I0
tbS'peak'
tRp2498
I6235
tp2499
a(g2
(g3
(S'S8'
I0
I1
tRp2500
(I3
S'|'
NNNI8
I1
I0
tbS'outstand'
tRp2501
I6205
tp2502
a(g2
(g3
(S'S7'
I0
I1
tRp2503
(I3
S'|'
NNNI7
I1
I0
tbS'proceed'
tRp2504
I6195
tp2505
a(g2
(g3
(S'S7'
I0
I1
tRp2506
(I3
S'|'
NNNI7
I1
I0
tbS'obligat'
tRp2507
I6171
tp2508
a(g2
(g3
(S'S5'
I0
I1
tRp2509
(I3
S'|'
NNNI5
I1
I0
tbS'rumor'
tRp2510
I6164
tp2511
a(g2
(g3
(S'S8'
I0
I1
tRp2512
(I3
S'|'
NNNI8
I1
I0
tbS'unemploy'
tRp2513
I6144
tp2514
a(g2
(g3
(S'S7'
I0
I1
tRp2515
(I3
S'|'
NNNI7
I1
I0
tbS'suspend'
tRp2516
I6126
tp2517
a(g2
(g3
(S'S3'
I0
I1
tRp2518
(I3
S'|'
NNNI3
I1
I0
tbS'cap'
tRp2519
I6121
tp2520
a(g2
(g3
(S'S4'
I0
I1
tRp2521
(I3
S'|'
NNNI4
I1
I0
tbS'body'
tRp2522
I6114
tp2523
a(g2
(g3
(S'S4'
I0
I1
tRp2524
(I3
S'|'
NNNI4
I1
I0
tbS'crop'
tRp2525
I6111
tp2526
a(g2
(g3
(S'S6'
I0
I1
tRp2527
(I3
S'|'
NNNI6
I1
I0
tbS'qualif'
tRp2528
I6109
tp2529
a(g2
(g3
(S'S10'
I0
I1
tRp2530
(I3
S'|'
NNNI10
I1
I0
tbS'responsibl'
tRp2531
I6107
tp2532
a(g2
(g3
(S'S6'
I0
I1
tRp2533
(I3
S'|'
NNNI6
I1
I0
tbS'versus'
tRp2534
I6106
tp2535
a(g2
(g3
(S'S2'
I0
I1
tRp2536
(I3
S'|'
NNNI2
I1
I0
tbS'ag'
tRp2537
I6095
tp2538
a(g2
(g3
(S'S6'
I0
I1
tRp2539
(I3
S'|'
NNNI6
I1
I0
tbS'design'
tRp2540
I6094
tp2541
a(g2
(g3
(S'S6'
I0
I1
tRp2542
(I3
S'|'
NNNI6
I1
I0
tbS'critic'
tRp2543
I6093
tp2544
a(g2
(g3
(S'S7'
I0
I1
tRp2545
(I3
S'|'
NNNI7
I1
I0
tbS'anticip'
tRp2546
I6077
tp2547
a(g2
(g3
(S'S3'
I0
I1
tRp2548
(I3
S'|'
NNNI3
I1
I0
tbS'die'
tRp2549
I6076
tp2550
a(g2
(g3
(S'S5'
I0
I1
tRp2551
(I3
S'|'
NNNI5
I1
I0
tbS'smith'
tRp2552
I6067
tp2553
a(g2
(g3
(S'S6'
I0
I1
tRp2554
(I3
S'|'
NNNI6
I1
I0
tbS'moment'
tRp2555
I6050
tp2556
a(g2
(g3
(S'S5'
I0
I1
tRp2557
(I3
S'|'
NNNI5
I1
I0
tbS'prior'
tRp2558
I6039
tp2559
a(g2
(g3
(S'S6'
I0
I1
tRp2560
(I3
S'|'
NNNI6
I1
I0
tbS'achief'
tRp2561
I6024
tp2562
a(g2
(g3
(S'S2'
I0
I1
tRp2563
(I3
S'|'
NNNI2
I1
I0
tbS'lb'
tRp2564
I6020
tp2565
a(g2
(g3
(S'S9'
I0
I1
tRp2566
(I3
S'|'
NNNI9
I1
I0
tbS'uncertain'
tRp2567
I6002
tp2568
a(g2
(g3
(S'S7'
I0
I1
tRp2569
(I3
S'|'
NNNI7
I1
I0
tbS'thought'
tRp2570
I5983
tp2571
a(g2
(g3
(S'S3'
I0
I1
tRp2572
(I3
S'|'
NNNI3
I1
I0
tbS'dip'
tRp2573
I5974
tp2574
a(g2
(g3
(S'S7'
I0
I1
tRp2575
(I3
S'|'
NNNI7
I1
I0
tbS'resourc'
tRp2576
I5970
tp2577
a(g2
(g3
(S'S8'
I0
I1
tRp2578
(I3
S'|'
NNNI8
I1
I0
tbS'introduc'
tRp2579
I5956
tp2580
a(g2
(g3
(S'S4'
I0
I1
tRp2581
(I3
S'|'
NNNI4
I1
I0
tbS'alli'
tRp2582
I5954
tp2583
a(g2
(g3
(S'S3'
I0
I1
tRp2584
(I3
S'|'
NNNI3
I1
I0
tbS'stg'
tRp2585
I5952
tp2586
a(g2
(g3
(S'S5'
I0
I1
tRp2587
(I3
S'|'
NNNI5
I1
I0
tbS'korea'
tRp2588
I5940
tp2589
a(g2
(g3
(S'S4'
I0
I1
tRp2590
(I3
S'|'
NNNI4
I1
I0
tbS'jone'
tRp2591
I5937
tp2592
a(g2
(g3
(S'S6'
I0
I1
tRp2593
(I3
S'|'
NNNI6
I1
I0
tbS'depend'
tRp2594
I5929
tp2595
a(g2
(g3
(S'S8'
I0
I1
tRp2596
(I3
S'|'
NNNI8
I1
I0
tbS'challeng'
tRp2597
I5925
tp2598
a(g2
(g3
(S'S4'
I0
I1
tRp2599
(I3
S'|'
NNNI4
I1
I0
tbS'huge'
tRp2600
I5921
tp2601
a(g2
(g3
(S'S4'
I0
I1
tRp2602
(I3
S'|'
NNNI4
I1
I0
tbS'bord'
tRp2603
I5921
tp2604
a(g2
(g3
(S'S3'
I0
I1
tRp2605
(I3
S'|'
NNNI3
I1
I0
tbS'sea'
tRp2606
I5919
tp2607
a(g2
(g3
(S'S8'
I0
I1
tRp2608
(I3
S'|'
NNNI8
I1
I0
tbS'progress'
tRp2609
I5894
tp2610
a(g2
(g3
(S'S4'
I0
I1
tRp2611
(I3
S'|'
NNNI4
I1
I0
tbS'army'
tRp2612
I5888
tp2613
a(g2
(g3
(S'S4'
I0
I1
tRp2614
(I3
S'|'
NNNI4
I1
I0
tbS'role'
tRp2615
I5882
tp2616
a(g2
(g3
(S'S5'
I0
I1
tRp2617
(I3
S'|'
NNNI5
I1
I0
tbS'accus'
tRp2618
I5873
tp2619
a(g2
(g3
(S'S6'
I0
I1
tRp2620
(I3
S'|'
NNNI6
I1
I0
tbS'exclud'
tRp2621
I5872
tp2622
a(g2
(g3
(S'S4'
I0
I1
tRp2623
(I3
S'|'
NNNI4
I1
I0
tbS'cite'
tRp2624
I5866
tp2625
a(g2
(g3
(S'S4'
I0
I1
tRp2626
(I3
S'|'
NNNI4
I1
I0
tbS'hung'
tRp2627
I5860
tp2628
a(g2
(g3
(S'S6'
I0
I1
tRp2629
(I3
S'|'
NNNI6
I1
I0
tbS'access'
tRp2630
I5847
tp2631
a(g2
(g3
(S'S4'
I0
I1
tRp2632
(I3
S'|'
NNNI4
I1
I0
tbS'jame'
tRp2633
I5844
tp2634
a(g2
(g3
(S'S5'
I0
I1
tRp2635
(I3
S'|'
NNNI5
I1
I0
tbS'coupl'
tRp2636
I5843
tp2637
a(g2
(g3
(S'S6'
I0
I1
tRp2638
(I3
S'|'
NNNI6
I1
I0
tbS'atlant'
tRp2639
I5829
tp2640
a(g2
(g3
(S'S7'
I0
I1
tRp2641
(I3
S'|'
NNNI7
I1
I0
tbS'conserv'
tRp2642
I5814
tp2643
a(g2
(g3
(S'S5'
I0
I1
tRp2644
(I3
S'|'
NNNI5
I1
I0
tbS'radio'
tRp2645
I5787
tp2646
a(g2
(g3
(S'S9'
I0
I1
tRp2647
(I3
S'|'
NNNI9
I1
I0
tbS'petroleum'
tRp2648
I5779
tp2649
a(g2
(g3
(S'S7'
I0
I1
tRp2650
(I3
S'|'
NNNI7
I1
I0
tbS'protect'
tRp2651
I5776
tp2652
a(g2
(g3
(S'S3'
I0
I1
tRp2653
(I3
S'|'
NNNI3
I1
I0
tbS'par'
tRp2654
I5776
tp2655
a(g2
(g3
(S'S8'
I0
I1
tRp2656
(I3
S'|'
NNNI8
I1
I0
tbS'prelimin'
tRp2657
I5772
tp2658
a(g2
(g3
(S'S3'
I0
I1
tRp2659
(I3
S'|'
NNNI3
I1
I0
tbS'san'
tRp2660
I5770
tp2661
a(g2
(g3
(S'S5'
I0
I1
tRp2662
(I3
S'|'
NNNI5
I1
I0
tbS'young'
tRp2663
I5758
tp2664
a(g2
(g3
(S'S7'
I0
I1
tRp2665
(I3
S'|'
NNNI7
I1
I0
tbS'brother'
tRp2666
I5758
tp2667
a(g2
(g3
(S'S6'
I0
I1
tRp2668
(I3
S'|'
NNNI6
I1
I0
tbS'revers'
tRp2669
I5757
tp2670
a(g2
(g3
(S'S3'
I0
I1
tRp2671
(I3
S'|'
NNNI3
I1
I0
tbS'mat'
tRp2672
I5742
tp2673
a(g2
(g3
(S'S6'
I0
I1
tRp2674
(I3
S'|'
NNNI6
I1
I0
tbS'follow'
tRp2675
I5738
tp2676
a(g2
(g3
(S'S7'
I0
I1
tRp2677
(I3
S'|'
NNNI7
I1
I0
tbS'dominat'
tRp2678
I5730
tp2679
a(g2
(g3
(S'S6'
I0
I1
tRp2680
(I3
S'|'
NNNI6
I1
I0
tbS'promis'
tRp2681
I5692
tp2682
a(g2
(g3
(S'S7'
I0
I1
tRp2683
(I3
S'|'
NNNI7
I1
I0
tbS'rebound'
tRp2684
I5678
tp2685
a(g2
(g3
(S'S5'
I0
I1
tRp2686
(I3
S'|'
NNNI5
I1
I0
tbS'expir'
tRp2687
I5670
tp2688
a(g2
(g3
(S'S4'
I0
I1
tRp2689
(I3
S'|'
NNNI4
I1
I0
tbS'easy'
tRp2690
I5670
tp2691
a(g2
(g3
(S'S6'
I0
I1
tRp2692
(I3
S'|'
NNNI6
I1
I0
tbS'second'
tRp2693
I5660
tp2694
a(g2
(g3
(S'S5'
I0
I1
tRp2695
(I3
S'|'
NNNI5
I1
I0
tbS'lynch'
tRp2696
I5656
tp2697
a(g2
(g3
(S'S5'
I0
I1
tRp2698
(I3
S'|'
NNNI5
I1
I0
tbS'rebel'
tRp2699
I5653
tp2700
a(g2
(g3
(S'S5'
I0
I1
tRp2701
(I3
S'|'
NNNI5
I1
I0
tbS'block'
tRp2702
I5647
tp2703
a(g2
(g3
(S'S6'
I0
I1
tRp2704
(I3
S'|'
NNNI6
I1
I0
tbS'resign'
tRp2705
I5621
tp2706
a(g2
(g3
(S'S6'
I0
I1
tRp2707
(I3
S'|'
NNNI6
I1
I0
tbS'territ'
tRp2708
I5619
tp2709
a(g2
(g3
(S'S5'
I0
I1
tRp2710
(I3
S'|'
NNNI5
I1
I0
tbS'troop'
tRp2711
I5605
tp2712
a(g2
(g3
(S'S3'
I0
I1
tRp2713
(I3
S'|'
NNNI3
I1
I0
tbS'fee'
tRp2714
I5584
tp2715
a(g2
(g3
(S'S4'
I0
I1
tRp2716
(I3
S'|'
NNNI4
I1
I0
tbS'corn'
tRp2717
I5582
tp2718
a(g2
(g3
(S'S2'
I0
I1
tRp2719
(I3
S'|'
NNNI2
I1
I0
tbS'sa'
tRp2720
I5581
tp2721
a(g2
(g3
(S'S3'
I0
I1
tRp2722
(I3
S'|'
NNNI3
I1
I0
tbS'feb'
tRp2723
I5581
tp2724
a(g2
(g3
(S'S6'
I0
I1
tRp2725
(I3
S'|'
NNNI6
I1
I0
tbS'vehicl'
tRp2726
I5565
tp2727
a(g2
(g3
(S'S8'
I0
I1
tRp2728
(I3
S'|'
NNNI8
I1
I0
tbS'governor'
tRp2729
I5562
tp2730
a(g2
(g3
(S'S5'
I0
I1
tRp2731
(I3
S'|'
NNNI5
I1
I0
tbS'touch'
tRp2732
I5561
tp2733
a(g2
(g3
(S'S6'
I0
I1
tRp2734
(I3
S'|'
NNNI6
I1
I0
tbS'moscow'
tRp2735
I5553
tp2736
a(g2
(g3
(S'S5'
I0
I1
tRp2737
(I3
S'|'
NNNI5
I1
I0
tbS'minor'
tRp2738
I5553
tp2739
a(g2
(g3
(S'S10'
I0
I1
tRp2740
(I3
S'|'
NNNI10
I1
I0
tbS'individual'
tRp2741
I5551
tp2742
a(g2
(g3
(S'S5'
I0
I1
tRp2743
(I3
S'|'
NNNI5
I1
I0
tbS'damag'
tRp2744
I5548
tp2745
a(g2
(g3
(S'S7'
I0
I1
tRp2746
(I3
S'|'
NNNI7
I1
I0
tbS'station'
tRp2747
I5545
tp2748
a(g2
(g3
(S'S5'
I0
I1
tRp2749
(I3
S'|'
NNNI5
I1
I0
tbS'czech'
tRp2750
I5535
tp2751
a(g2
(g3
(S'S5'
I0
I1
tRp2752
(I3
S'|'
NNNI5
I1
I0
tbS'await'
tRp2753
I5532
tp2754
a(g2
(g3
(S'S8'
I0
I1
tRp2755
(I3
S'|'
NNNI8
I1
I0
tbS'determin'
tRp2756
I5527
tp2757
a(g2
(g3
(S'S5'
I0
I1
tRp2758
(I3
S'|'
NNNI5
I1
I0
tbS'motor'
tRp2759
I5525
tp2760
a(g2
(g3
(S'S5'
I0
I1
tRp2761
(I3
S'|'
NNNI5
I1
I0
tbS'ready'
tRp2762
I5490
tp2763
a(g2
(g3
(S'S2'
I0
I1
tRp2764
(I3
S'|'
NNNI2
I1
I0
tbS'll'
tRp2765
I5478
tp2766
a(g2
(g3
(S'S6'
I0
I1
tRp2767
(I3
S'|'
NNNI6
I1
I0
tbS'defeat'
tRp2768
I5465
tp2769
a(g2
(g3
(S'S7'
I0
I1
tRp2770
(I3
S'|'
NNNI7
I1
I0
tbS'merrill'
tRp2771
I5463
tp2772
a(g2
(g3
(S'S6'
I0
I1
tRp2773
(I3
S'|'
NNNI6
I1
I0
tbS'declar'
tRp2774
I5440
tp2775
a(g2
(g3
(S'S5'
I0
I1
tRp2776
(I3
S'|'
NNNI5
I1
I0
tbS'popul'
tRp2777
I5436
tp2778
a(g2
(g3
(S'S7'
I0
I1
tRp2779
(I3
S'|'
NNNI7
I1
I0
tbS'prevent'
tRp2780
I5431
tp2781
a(g2
(g3
(S'S5'
I0
I1
tRp2782
(I3
S'|'
NNNI5
I1
I0
tbS'women'
tRp2783
I5425
tp2784
a(g2
(g3
(S'S4'
I0
I1
tRp2785
(I3
S'|'
NNNI4
I1
I0
tbS'farm'
tRp2786
I5423
tp2787
a(g2
(g3
(S'S6'
I0
I1
tRp2788
(I3
S'|'
NNNI6
I1
I0
tbS'israel'
tRp2789
I5422
tp2790
a(g2
(g3
(S'S6'
I0
I1
tRp2791
(I3
S'|'
NNNI6
I1
I0
tbS'review'
tRp2792
I5418
tp2793
a(g2
(g3
(S'S4'
I0
I1
tRp2794
(I3
S'|'
NNNI4
I1
I0
tbS'peso'
tRp2795
I5406
tp2796
a(g2
(g3
(S'S6'
I0
I1
tRp2797
(I3
S'|'
NNNI6
I1
I0
tbS'candid'
tRp2798
I5405
tp2799
a(g2
(g3
(S'S4'
I0
I1
tRp2800
(I3
S'|'
NNNI4
I1
I0
tbS'sens'
tRp2801
I5393
tp2802
a(g2
(g3
(S'S3'
I0
I1
tRp2803
(I3
S'|'
NNNI3
I1
I0
tbS'cop'
tRp2804
I5383
tp2805
a(g2
(g3
(S'S7'
I0
I1
tRp2806
(I3
S'|'
NNNI7
I1
I0
tbS'telecom'
tRp2807
I5381
tp2808
a(g2
(g3
(S'S3'
I0
I1
tRp2809
(I3
S'|'
NNNI3
I1
I0
tbS'mar'
tRp2810
I5378
tp2811
a(g2
(g3
(S'S7'
I0
I1
tRp2812
(I3
S'|'
NNNI7
I1
I0
tbS'struggl'
tRp2813
I5377
tp2814
a(g2
(g3
(S'S8'
I0
I1
tRp2815
(I3
S'|'
NNNI8
I1
I0
tbS'congress'
tRp2816
I5362
tp2817
a(g2
(g3
(S'S4'
I0
I1
tRp2818
(I3
S'|'
NNNI4
I1
I0
tbS'trig'
tRp2819
I5361
tp2820
a(g2
(g3
(S'S9'
I0
I1
tRp2821
(I3
S'|'
NNNI9
I1
I0
tbS'philippin'
tRp2822
I5358
tp2823
a(g2
(g3
(S'S4'
I0
I1
tRp2824
(I3
S'|'
NNNI4
I1
I0
tbS'taiw'
tRp2825
I5350
tp2826
a(g2
(g3
(S'S8'
I0
I1
tRp2827
(I3
S'|'
NNNI8
I1
I0
tbS'structur'
tRp2828
I5350
tp2829
a(g2
(g3
(S'S4'
I0
I1
tRp2830
(I3
S'|'
NNNI4
I1
I0
tbS'miss'
tRp2831
I5335
tp2832
a(g2
(g3
(S'S6'
I0
I1
tRp2833
(I3
S'|'
NNNI6
I1
I0
tbS'encour'
tRp2834
I5331
tp2835
a(g2
(g3
(S'S4'
I0
I1
tRp2836
(I3
S'|'
NNNI4
I1
I0
tbS'road'
tRp2837
I5330
tp2838
a(g2
(g3
(S'S8'
I0
I1
tRp2839
(I3
S'|'
NNNI8
I1
I0
tbS'approach'
tRp2840
I5325
tp2841
a(g2
(g3
(S'S5'
I0
I1
tRp2842
(I3
S'|'
NNNI5
I1
I0
tbS'train'
tRp2843
I5323
tp2844
a(g2
(g3
(S'S5'
I0
I1
tRp2845
(I3
S'|'
NNNI5
I1
I0
tbS'battl'
tRp2846
I5313
tp2847
a(g2
(g3
(S'S4'
I0
I1
tRp2848
(I3
S'|'
NNNI4
I1
I0
tbS'cris'
tRp2849
I5293
tp2850
a(g2
(g3
(S'S4'
I0
I1
tRp2851
(I3
S'|'
NNNI4
I1
I0
tbS'heat'
tRp2852
I5272
tp2853
a(g2
(g3
(S'S7'
I0
I1
tRp2854
(I3
S'|'
NNNI7
I1
I0
tbS'zealand'
tRp2855
I5259
tp2856
a(g2
(g3
(S'S4'
I0
I1
tRp2857
(I3
S'|'
NNNI4
I1
I0
tbS'pace'
tRp2858
I5259
tp2859
a(g2
(g3
(S'S8'
I0
I1
tRp2860
(I3
S'|'
NNNI8
I1
I0
tbS'investig'
tRp2861
I5257
tp2862
a(g2
(g3
(S'S7'
I0
I1
tRp2863
(I3
S'|'
NNNI7
I1
I0
tbS'environ'
tRp2864
I5249
tp2865
a(g2
(g3
(S'S9'
I0
I1
tRp2866
(I3
S'|'
NNNI9
I1
I0
tbS'portfolio'
tRp2867
I5245
tp2868
a(g2
(g3
(S'S6'
I0
I1
tRp2869
(I3
S'|'
NNNI6
I1
I0
tbS'chemic'
tRp2870
I5244
tp2871
a(g2
(g3
(S'S6'
I0
I1
tRp2872
(I3
S'|'
NNNI6
I1
I0
tbS'modest'
tRp2873
I5238
tp2874
a(g2
(g3
(S'S5'
I0
I1
tRp2875
(I3
S'|'
NNNI5
I1
I0
tbS'exper'
tRp2876
I5232
tp2877
a(g2
(g3
(S'S5'
I0
I1
tRp2878
(I3
S'|'
NNNI5
I1
I0
tbS'floor'
tRp2879
I5228
tp2880
a(g2
(g3
(S'S4'
I0
I1
tRp2881
(I3
S'|'
NNNI4
I1
I0
tbS'file'
tRp2882
I5218
tp2883
a(g2
(g3
(S'S9'
I0
I1
tRp2884
(I3
S'|'
NNNI9
I1
I0
tbS'represent'
tRp2885
I5210
tp2886
a(g2
(g3
(S'S6'
I0
I1
tRp2887
(I3
S'|'
NNNI6
I1
I0
tbS'affair'
tRp2888
I5200
tp2889
a(g2
(g3
(S'S6'
I0
I1
tRp2890
(I3
S'|'
NNNI6
I1
I0
tbS'centur'
tRp2891
I5196
tp2892
a(g2
(g3
(S'S4'
I0
I1
tRp2893
(I3
S'|'
NNNI4
I1
I0
tbS'wing'
tRp2894
I5191
tp2895
a(g2
(g3
(S'S6'
I0
I1
tRp2896
(I3
S'|'
NNNI6
I1
I0
tbS'underl'
tRp2897
I5188
tp2898
a(g2
(g3
(S'S6'
I0
I1
tRp2899
(I3
S'|'
NNNI6
I1
I0
tbS'pakist'
tRp2900
I5187
tp2901
a(g2
(g3
(S'S5'
I0
I1
tRp2902
(I3
S'|'
NNNI5
I1
I0
tbS'enter'
tRp2903
I5185
tp2904
a(g2
(g3
(S'S3'
I0
I1
tRp2905
(I3
S'|'
NNNI3
I1
I0
tbS'eye'
tRp2906
I5169
tp2907
a(g2
(g3
(S'S6'
I0
I1
tRp2908
(I3
S'|'
NNNI6
I1
I0
tbS'airlin'
tRp2909
I5160
tp2910
a(g2
(g3
(S'S7'
I0
I1
tRp2911
(I3
S'|'
NNNI7
I1
I0
tbS'surplus'
tRp2912
I5152
tp2913
a(g2
(g3
(S'S5'
I0
I1
tRp2914
(I3
S'|'
NNNI5
I1
I0
tbS'death'
tRp2915
I5152
tp2916
a(g2
(g3
(S'S6'
I0
I1
tRp2917
(I3
S'|'
NNNI6
I1
I0
tbS'medium'
tRp2918
I5128
tp2919
a(g2
(g3
(S'S6'
I0
I1
tRp2920
(I3
S'|'
NNNI6
I1
I0
tbS'enhanc'
tRp2921
I5128
tp2922
a(g2
(g3
(S'S7'
I0
I1
tRp2923
(I3
S'|'
NNNI7
I1
I0
tbS'opinion'
tRp2924
I5120
tp2925
a(g2
(g3
(S'S6'
I0
I1
tRp2926
(I3
S'|'
NNNI6
I1
I0
tbS'intend'
tRp2927
I5117
tp2928
a(g2
(g3
(S'S5'
I0
I1
tRp2929
(I3
S'|'
NNNI5
I1
I0
tbS'optim'
tRp2930
I5108
tp2931
a(g2
(g3
(S'S7'
I0
I1
tRp2932
(I3
S'|'
NNNI7
I1
I0
tbS'soybean'
tRp2933
I5097
tp2934
a(g2
(g3
(S'S6'
I0
I1
tRp2935
(I3
S'|'
NNNI6
I1
I0
tbS'attend'
tRp2936
I5090
tp2937
a(g2
(g3
(S'S9'
I0
I1
tRp2938
(I3
S'|'
NNNI9
I1
I0
tbS'yesterday'
tRp2939
I5088
tp2940
a(g2
(g3
(S'S3'
I0
I1
tRp2941
(I3
S'|'
NNNI3
I1
I0
tbS'bad'
tRp2942
I5076
tp2943
a(g2
(g3
(S'S5'
I0
I1
tRp2944
(I3
S'|'
NNNI5
I1
I0
tbS'angel'
tRp2945
I5058
tp2946
a(g2
(g3
(S'S5'
I0
I1
tRp2947
(I3
S'|'
NNNI5
I1
I0
tbS'class'
tRp2948
I5049
tp2949
a(g2
(g3
(S'S7'
I0
I1
tRp2950
(I3
S'|'
NNNI7
I1
I0
tbS'contact'
tRp2951
I5045
tp2952
a(g2
(g3
(S'S4'
I0
I1
tRp2953
(I3
S'|'
NNNI4
I1
I0
tbS'look'
tRp2954
I5041
tp2955
a(g2
(g3
(S'S4'
I0
I1
tRp2956
(I3
S'|'
NNNI4
I1
I0
tbS'care'
tRp2957
I5041
tp2958
a(g2
(g3
(S'S5'
I0
I1
tRp2959
(I3
S'|'
NNNI5
I1
I0
tbS'equal'
tRp2960
I5039
tp2961
a(g2
(g3
(S'S5'
I0
I1
tRp2962
(I3
S'|'
NNNI5
I1
I0
tbS'child'
tRp2963
I5038
tp2964
a(g2
(g3
(S'S3'
I0
I1
tRp2965
(I3
S'|'
NNNI3
I1
I0
tbS'wit'
tRp2966
I5031
tp2967
a(g2
(g3
(S'S10'
I0
I1
tRp2968
(I3
S'|'
NNNI10
I1
I0
tbS'telecommun'
tRp2969
I5026
tp2970
a(g2
(g3
(S'S6'
I0
I1
tRp2971
(I3
S'|'
NNNI6
I1
I0
tbS'calcul'
tRp2972
I5011
tp2973
a(g2
(g3
(S'S5'
I0
I1
tRp2974
(I3
S'|'
NNNI5
I1
I0
tbS'apply'
tRp2975
I5011
tp2976
a(g2
(g3
(S'S6'
I0
I1
tRp2977
(I3
S'|'
NNNI6
I1
I0
tbS'assist'
tRp2978
I5010
tp2979
a(g2
(g3
(S'S3'
I0
I1
tRp2980
(I3
S'|'
NNNI3
I1
I0
tbS'aaa'
tRp2981
I5009
tp2982
a(g2
(g3
(S'S6'
I0
I1
tRp2983
(I3
S'|'
NNNI6
I1
I0
tbS'troubl'
tRp2984
I5003
tp2985
a(g2
(g3
(S'S5'
I0
I1
tRp2986
(I3
S'|'
NNNI5
I1
I0
tbS'legal'
tRp2987
I4992
tp2988
a(g2
(g3
(S'S5'
I0
I1
tRp2989
(I3
S'|'
NNNI5
I1
I0
tbS'tough'
tRp2990
I4987
tp2991
a(g2
(g3
(S'S7'
I0
I1
tRp2992
(I3
S'|'
NNNI7
I1
I0
tbS'william'
tRp2993
I4984
tp2994
a(g2
(g3
(S'S6'
I0
I1
tRp2995
(I3
S'|'
NNNI6
I1
I0
tbS'invent'
tRp2996
I4982
tp2997
a(g2
(g3
(S'S5'
I0
I1
tRp2998
(I3
S'|'
NNNI5
I1
I0
tbS'study'
tRp2999
I4974
tp3000
a(g2
(g3
(S'S4'
I0
I1
tRp3001
(I3
S'|'
NNNI4
I1
I0
tbS'drug'
tRp3002
I4972
tp3003
a(g2
(g3
(S'S6'
I0
I1
tRp3004
(I3
S'|'
NNNI6
I1
I0
tbS'reject'
tRp3005
I4971
tp3006
a(g2
(g3
(S'S7'
I0
I1
tRp3007
(I3
S'|'
NNNI7
I1
I0
tbS'univers'
tRp3008
I4966
tp3009
a(g2
(g3
(S'S5'
I0
I1
tRp3010
(I3
S'|'
NNNI5
I1
I0
tbS'regul'
tRp3011
I4966
tp3012
a(g2
(g3
(S'S6'
I0
I1
tRp3013
(I3
S'|'
NNNI6
I1
I0
tbS'certif'
tRp3014
I4960
tp3015
a(g2
(g3
(S'S4'
I0
I1
tRp3016
(I3
S'|'
NNNI4
I1
I0
tbS'hike'
tRp3017
I4953
tp3018
a(g2
(g3
(S'S6'
I0
I1
tRp3019
(I3
S'|'
NNNI6
I1
I0
tbS'cargoe'
tRp3020
I4940
tp3021
a(g2
(g3
(S'S6'
I0
I1
tRp3022
(I3
S'|'
NNNI6
I1
I0
tbS'hospit'
tRp3023
I4933
tp3024
a(g2
(g3
(S'S9'
I0
I1
tRp3025
(I3
S'|'
NNNI9
I1
I0
tbS'spokeswom'
tRp3026
I4931
tp3027
a(g2
(g3
(S'S5'
I0
I1
tRp3028
(I3
S'|'
NNNI5
I1
I0
tbS'sport'
tRp3029
I4923
tp3030
a(g2
(g3
(S'S4'
I0
I1
tRp3031
(I3
S'|'
NNNI4
I1
I0
tbS'feed'
tRp3032
I4920
tp3033
a(g2
(g3
(S'S5'
I0
I1
tRp3034
(I3
S'|'
NNNI5
I1
I0
tbS'nearb'
tRp3035
I4914
tp3036
a(g2
(g3
(S'S7'
I0
I1
tRp3037
(I3
S'|'
NNNI7
I1
I0
tbS'consult'
tRp3038
I4910
tp3039
a(g2
(g3
(S'S5'
I0
I1
tRp3040
(I3
S'|'
NNNI5
I1
I0
tbS'sterl'
tRp3041
I4907
tp3042
a(g2
(g3
(S'S10'
I0
I1
tRp3043
(I3
S'|'
NNNI10
I1
I0
tbS'disappoint'
tRp3044
I4905
tp3045
a(g2
(g3
(S'S5'
I0
I1
tRp3046
(I3
S'|'
NNNI5
I1
I0
tbS'fully'
tRp3047
I4903
tp3048
a(g2
(g3
(S'S8'
I0
I1
tRp3049
(I3
S'|'
NNNI8
I1
I0
tbS'composit'
tRp3050
I4903
tp3051
a(g2
(g3
(S'S7'
I0
I1
tRp3052
(I3
S'|'
NNNI7
I1
I0
tbS'cabinet'
tRp3053
I4902
tp3054
a(g2
(g3
(S'S4'
I0
I1
tRp3055
(I3
S'|'
NNNI4
I1
I0
tbS'star'
tRp3056
I4898
tp3057
a(g2
(g3
(S'S5'
I0
I1
tRp3058
(I3
S'|'
NNNI5
I1
I0
tbS'human'
tRp3059
I4887
tp3060
a(g2
(g3
(S'S5'
I0
I1
tRp3061
(I3
S'|'
NNNI5
I1
I0
tbS'renew'
tRp3062
I4872
tp3063
a(g2
(g3
(S'S5'
I0
I1
tRp3064
(I3
S'|'
NNNI5
I1
I0
tbS'doubt'
tRp3065
I4870
tp3066
a(g2
(g3
(S'S5'
I0
I1
tRp3067
(I3
S'|'
NNNI5
I1
I0
tbS'refus'
tRp3068
I4861
tp3069
a(g2
(g3
(S'S5'
I0
I1
tRp3070
(I3
S'|'
NNNI5
I1
I0
tbS'spark'
tRp3071
I4856
tp3072
a(g2
(g3
(S'S6'
I0
I1
tRp3073
(I3
S'|'
NNNI6
I1
I0
tbS'educat'
tRp3074
I4852
tp3075
a(g2
(g3
(S'S4'
I0
I1
tRp3076
(I3
S'|'
NNNI4
I1
I0
tbS'engl'
tRp3077
I4842
tp3078
a(g2
(g3
(S'S6'
I0
I1
tRp3079
(I3
S'|'
NNNI6
I1
I0
tbS'friend'
tRp3080
I4835
tp3081
a(g2
(g3
(S'S8'
I0
I1
tRp3082
(I3
S'|'
NNNI8
I1
I0
tbS'thousand'
tRp3083
I4826
tp3084
a(g2
(g3
(S'S6'
I0
I1
tRp3085
(I3
S'|'
NNNI6
I1
I0
tbS'martin'
tRp3086
I4823
tp3087
a(g2
(g3
(S'S5'
I0
I1
tRp3088
(I3
S'|'
NNNI5
I1
I0
tbS'float'
tRp3089
I4823
tp3090
a(g2
(g3
(S'S3'
I0
I1
tRp3091
(I3
S'|'
NNNI3
I1
I0
tbS'urg'
tRp3092
I4820
tp3093
a(g2
(g3
(S'S6'
I0
I1
tRp3094
(I3
S'|'
NNNI6
I1
I0
tbS'provis'
tRp3095
I4811
tp3096
a(g2
(g3
(S'S4'
I0
I1
tRp3097
(I3
S'|'
NNNI4
I1
I0
tbS'titl'
tRp3098
I4803
tp3099
a(g2
(g3
(S'S6'
I0
I1
tRp3100
(I3
S'|'
NNNI6
I1
I0
tbS'upward'
tRp3101
I4797
tp3102
a(g2
(g3
(S'S5'
I0
I1
tRp3103
(I3
S'|'
NNNI5
I1
I0
tbS'nymex'
tRp3104
I4771
tp3105
a(g2
(g3
(S'S5'
I0
I1
tRp3106
(I3
S'|'
NNNI5
I1
I0
tbS'locat'
tRp3107
I4771
tp3108
a(g2
(g3
(S'S6'
I0
I1
tRp3109
(I3
S'|'
NNNI6
I1
I0
tbS'conduc'
tRp3110
I4771
tp3111
a(g2
(g3
(S'S4'
I0
I1
tRp3112
(I3
S'|'
NNNI4
I1
I0
tbS'anti'
tRp3113
I4759
tp3114
a(g2
(g3
(S'S6'
I0
I1
tRp3115
(I3
S'|'
NNNI6
I1
I0
tbS'prefer'
tRp3116
I4753
tp3117
a(g2
(g3
(S'S4'
I0
I1
tRp3118
(I3
S'|'
NNNI4
I1
I0
tbS'span'
tRp3119
I4725
tp3120
a(g2
(g3
(S'S3'
I0
I1
tRp3121
(I3
S'|'
NNNI3
I1
I0
tbS'iss'
tRp3122
I4710
tp3123
a(g2
(g3
(S'S8'
I0
I1
tRp3124
(I3
S'|'
NNNI8
I1
I0
tbS'withdraw'
tRp3125
I4703
tp3126
a(g2
(g3
(S'S5'
I0
I1
tRp3127
(I3
S'|'
NNNI5
I1
I0
tbS'journ'
tRp3128
I4696
tp3129
a(g2
(g3
(S'S4'
I0
I1
tRp3130
(I3
S'|'
NNNI4
I1
I0
tbS'soar'
tRp3131
I4695
tp3132
a(g2
(g3
(S'S4'
I0
I1
tRp3133
(I3
S'|'
NNNI4
I1
I0
tbS'swap'
tRp3134
I4693
tp3135
a(g2
(g3
(S'S9'
I0
I1
tRp3136
(I3
S'|'
NNNI9
I1
I0
tbS'frankfurt'
tRp3137
I4691
tp3138
a(g2
(g3
(S'S7'
I0
I1
tRp3139
(I3
S'|'
NNNI7
I1
I0
tbS'clinton'
tRp3140
I4689
tp3141
a(g2
(g3
(S'S5'
I0
I1
tRp3142
(I3
S'|'
NNNI5
I1
I0
tbS'solid'
tRp3143
I4685
tp3144
a(g2
(g3
(S'S2'
I0
I1
tRp3145
(I3
S'|'
NNNI2
I1
I0
tbS'eu'
tRp3146
I4684
tp3147
a(g2
(g3
(S'S6'
I0
I1
tRp3148
(I3
S'|'
NNNI6
I1
I0
tbS'midday'
tRp3149
I4663
tp3150
a(g2
(g3
(S'S3'
I0
I1
tRp3151
(I3
S'|'
NNNI3
I1
I0
tbS'int'
tRp3152
I4657
tp3153
a(g2
(g3
(S'S4'
I0
I1
tRp3154
(I3
S'|'
NNNI4
I1
I0
tbS'conc'
tRp3155
I4656
tp3156
a(g2
(g3
(S'S2'
I0
I1
tRp3157
(I3
S'|'
NNNI2
I1
I0
tbS'al'
tRp3158
I4651
tp3159
a(g2
(g3
(S'S3'
I0
I1
tRp3160
(I3
S'|'
NNNI3
I1
I0
tbS'let'
tRp3161
I4647
tp3162
a(g2
(g3
(S'S2'
I0
I1
tRp3163
(I3
S'|'
NNNI2
I1
I0
tbS'hk'
tRp3164
I4642
tp3165
a(g2
(g3
(S'S6'
I0
I1
tRp3166
(I3
S'|'
NNNI6
I1
I0
tbS'extrem'
tRp3167
I4636
tp3168
a(g2
(g3
(S'S5'
I0
I1
tRp3169
(I3
S'|'
NNNI5
I1
I0
tbS'liber'
tRp3170
I4617
tp3171
a(g2
(g3
(S'S10'
I0
I1
tRp3172
(I3
S'|'
NNNI10
I1
I0
tbS'restructur'
tRp3173
I4616
tp3174
a(g2
(g3
(S'S4'
I0
I1
tRp3175
(I3
S'|'
NNNI4
I1
I0
tbS'dead'
tRp3176
I4612
tp3177
a(g2
(g3
(S'S5'
I0
I1
tRp3178
(I3
S'|'
NNNI5
I1
I0
tbS'ensur'
tRp3179
I4605
tp3180
a(g2
(g3
(S'S7'
I0
I1
tRp3181
(I3
S'|'
NNNI7
I1
I0
tbS'airport'
tRp3182
I4604
tp3183
a(g2
(g3
(S'S7'
I0
I1
tRp3184
(I3
S'|'
NNNI7
I1
I0
tbS'gasolin'
tRp3185
I4603
tp3186
a(g2
(g3
(S'S7'
I0
I1
tRp3187
(I3
S'|'
NNNI7
I1
I0
tbS'violent'
tRp3188
I4598
tp3189
a(g2
(g3
(S'S5'
I0
I1
tRp3190
(I3
S'|'
NNNI5
I1
I0
tbS'influ'
tRp3191
I4598
tp3192
a(g2
(g3
(S'S3'
I0
I1
tRp3193
(I3
S'|'
NNNI3
I1
I0
tbS'cpi'
tRp3194
I4591
tp3195
a(g2
(g3
(S'S3'
I0
I1
tRp3196
(I3
S'|'
NNNI3
I1
I0
tbS'apr'
tRp3197
I4590
tp3198
a(g2
(g3
(S'S4'
I0
I1
tRp3199
(I3
S'|'
NNNI4
I1
I0
tbS'caut'
tRp3200
I4585
tp3201
a(g2
(g3
(S'S7'
I0
I1
tRp3202
(I3
S'|'
NNNI7
I1
I0
tbS'sustain'
tRp3203
I4578
tp3204
a(g2
(g3
(S'S5'
I0
I1
tRp3205
(I3
S'|'
NNNI5
I1
I0
tbS'hotel'
tRp3206
I4578
tp3207
a(g2
(g3
(S'S4'
I0
I1
tRp3208
(I3
S'|'
NNNI4
I1
I0
tbS'tabl'
tRp3209
I4558
tp3210
a(g2
(g3
(S'S7'
I0
I1
tRp3211
(I3
S'|'
NNNI7
I1
I0
tbS'protest'
tRp3212
I4558
tp3213
a(g2
(g3
(S'S4'
I0
I1
tRp3214
(I3
S'|'
NNNI4
I1
I0
tbS'read'
tRp3215
I4555
tp3216
a(g2
(g3
(S'S8'
I0
I1
tRp3217
(I3
S'|'
NNNI8
I1
I0
tbS'engineer'
tRp3218
I4554
tp3219
a(g2
(g3
(S'S4'
I0
I1
tRp3220
(I3
S'|'
NNNI4
I1
I0
tbS'pret'
tRp3221
I4550
tp3222
a(g2
(g3
(S'S5'
I0
I1
tRp3223
(I3
S'|'
NNNI5
I1
I0
tbS'roman'
tRp3224
I4547
tp3225
a(g2
(g3
(S'S7'
I0
I1
tRp3226
(I3
S'|'
NNNI7
I1
I0
tbS'deutsch'
tRp3227
I4544
tp3228
a(g2
(g3
(S'S6'
I0
I1
tRp3229
(I3
S'|'
NNNI6
I1
I0
tbS'expert'
tRp3230
I4538
tp3231
a(g2
(g3
(S'S4'
I0
I1
tRp3232
(I3
S'|'
NNNI4
I1
I0
tbS'site'
tRp3233
I4531
tp3234
a(g2
(g3
(S'S8'
I0
I1
tRp3235
(I3
S'|'
NNNI8
I1
I0
tbS'neighbor'
tRp3236
I4529
tp3237
a(g2
(g3
(S'S6'
I0
I1
tRp3238
(I3
S'|'
NNNI6
I1
I0
tbS'expend'
tRp3239
I4529
tp3240
a(g2
(g3
(S'S6'
I0
I1
tRp3241
(I3
S'|'
NNNI6
I1
I0
tbS'bottom'
tRp3242
I4529
tp3243
a(g2
(g3
(S'S6'
I0
I1
tRp3244
(I3
S'|'
NNNI6
I1
I0
tbS'societ'
tRp3245
I4526
tp3246
a(g2
(g3
(S'S5'
I0
I1
tRp3247
(I3
S'|'
NNNI5
I1
I0
tbS'steel'
tRp3248
I4525
tp3249
a(g2
(g3
(S'S6'
I0
I1
tRp3250
(I3
S'|'
NNNI6
I1
I0
tbS'polish'
tRp3251
I4525
tp3252
a(g2
(g3
(S'S4'
I0
I1
tRp3253
(I3
S'|'
NNNI4
I1
I0
tbS'keep'
tRp3254
I4523
tp3255
a(g2
(g3
(S'S7'
I0
I1
tRp3256
(I3
S'|'
NNNI7
I1
I0
tbS'evident'
tRp3257
I4523
tp3258
a(g2
(g3
(S'S8'
I0
I1
tRp3259
(I3
S'|'
NNNI8
I1
I0
tbS'californ'
tRp3260
I4522
tp3261
a(g2
(g3
(S'S4'
I0
I1
tRp3262
(I3
S'|'
NNNI4
I1
I0
tbS'deep'
tRp3263
I4507
tp3264
a(g2
(g3
(S'S5'
I0
I1
tRp3265
(I3
S'|'
NNNI5
I1
I0
tbS'ratio'
tRp3266
I4505
tp3267
a(g2
(g3
(S'S3'
I0
I1
tRp3268
(I3
S'|'
NNNI3
I1
I0
tbS'rtr'
tRp3269
I4504
tp3270
a(g2
(g3
(S'S8'
I0
I1
tRp3271
(I3
S'|'
NNNI8
I1
I0
tbS'tomorrow'
tRp3272
I4503
tp3273
a(g2
(g3
(S'S3'
I0
I1
tRp3274
(I3
S'|'
NNNI3
I1
I0
tbS'peg'
tRp3275
I4502
tp3276
a(g2
(g3
(S'S3'
I0
I1
tRp3277
(I3
S'|'
NNNI3
I1
I0
tbS'ban'
tRp3278
I4501
tp3279
a(g2
(g3
(S'S3'
I0
I1
tRp3280
(I3
S'|'
NNNI3
I1
I0
tbS'wag'
tRp3281
I4484
tp3282
a(g2
(g3
(S'S5'
I0
I1
tRp3283
(I3
S'|'
NNNI5
I1
I0
tbS'grant'
tRp3284
I4474
tp3285
a(g2
(g3
(S'S5'
I0
I1
tRp3286
(I3
S'|'
NNNI5
I1
I0
tbS'premy'
tRp3287
I4466
tp3288
a(g2
(g3
(S'S4'
I0
I1
tRp3289
(I3
S'|'
NNNI4
I1
I0
tbS'wint'
tRp3290
I4465
tp3291
a(g2
(g3
(S'S6'
I0
I1
tRp3292
(I3
S'|'
NNNI6
I1
I0
tbS'advant'
tRp3293
I4464
tp3294
a(g2
(g3
(S'S5'
I0
I1
tRp3295
(I3
S'|'
NNNI5
I1
I0
tbS'heard'
tRp3296
I4458
tp3297
a(g2
(g3
(S'S5'
I0
I1
tRp3298
(I3
S'|'
NNNI5
I1
I0
tbS'coach'
tRp3299
I4457
tp3300
a(g2
(g3
(S'S5'
I0
I1
tRp3301
(I3
S'|'
NNNI5
I1
I0
tbS'weigh'
tRp3302
I4450
tp3303
a(g2
(g3
(S'S4'
I0
I1
tRp3304
(I3
S'|'
NNNI4
I1
I0
tbS'room'
tRp3305
I4448
tp3306
a(g2
(g3
(S'S3'
I0
I1
tRp3307
(I3
S'|'
NNNI3
I1
I0
tbS'gap'
tRp3308
I4444
tp3309
a(g2
(g3
(S'S5'
I0
I1
tRp3310
(I3
S'|'
NNNI5
I1
I0
tbS'compl'
tRp3311
I4443
tp3312
a(g2
(g3
(S'S5'
I0
I1
tRp3313
(I3
S'|'
NNNI5
I1
I0
tbS'built'
tRp3314
I4442
tp3315
a(g2
(g3
(S'S5'
I0
I1
tRp3316
(I3
S'|'
NNNI5
I1
I0
tbS'black'
tRp3317
I4438
tp3318
a(g2
(g3
(S'S7'
I0
I1
tRp3319
(I3
S'|'
NNNI7
I1
I0
tbS'richard'
tRp3320
I4433
tp3321
a(g2
(g3
(S'S4'
I0
I1
tRp3322
(I3
S'|'
NNNI4
I1
I0
tbS'mail'
tRp3323
I4433
tp3324
a(g2
(g3
(S'S5'
I0
I1
tRp3325
(I3
S'|'
NNNI5
I1
I0
tbS'brief'
tRp3326
I4433
tp3327
a(g2
(g3
(S'S7'
I0
I1
tRp3328
(I3
S'|'
NNNI7
I1
I0
tbS'resolut'
tRp3329
I4431
tp3330
a(g2
(g3
(S'S4'
I0
I1
tRp3331
(I3
S'|'
NNNI4
I1
I0
tbS'park'
tRp3332
I4428
tp3333
a(g2
(g3
(S'S6'
I0
I1
tRp3334
(I3
S'|'
NNNI6
I1
I0
tbS'promot'
tRp3335
I4427
tp3336
a(g2
(g3
(S'S4'
I0
I1
tRp3337
(I3
S'|'
NNNI4
I1
I0
tbS'shed'
tRp3338
I4424
tp3339
a(g2
(g3
(S'S3'
I0
I1
tRp3340
(I3
S'|'
NNNI3
I1
I0
tbS'son'
tRp3341
I4398
tp3342
a(g2
(g3
(S'S4'
I0
I1
tRp3343
(I3
S'|'
NNNI4
I1
I0
tbS'heav'
tRp3344
I4394
tp3345
a(g2
(g3
(S'S5'
I0
I1
tRp3346
(I3
S'|'
NNNI5
I1
I0
tbS'sugar'
tRp3347
I4391
tp3348
a(g2
(g3
(S'S6'
I0
I1
tRp3349
(I3
S'|'
NNNI6
I1
I0
tbS'travel'
tRp3350
I4388
tp3351
a(g2
(g3
(S'S4'
I0
I1
tRp3352
(I3
S'|'
NNNI4
I1
I0
tbS'core'
tRp3353
I4388
tp3354
a(g2
(g3
(S'S6'
I0
I1
tRp3355
(I3
S'|'
NNNI6
I1
I0
tbS'repeat'
tRp3356
I4387
tp3357
a(g2
(g3
(S'S4'
I0
I1
tRp3358
(I3
S'|'
NNNI4
I1
I0
tbS'bare'
tRp3359
I4381
tp3360
a(g2
(g3
(S'S6'
I0
I1
tRp3361
(I3
S'|'
NNNI6
I1
I0
tbS'attent'
tRp3362
I4372
tp3363
a(g2
(g3
(S'S4'
I0
I1
tRp3364
(I3
S'|'
NNNI4
I1
I0
tbS'hist'
tRp3365
I4357
tp3366
a(g2
(g3
(S'S9'
I0
I1
tRp3367
(I3
S'|'
NNNI9
I1
I0
tbS'amsterdam'
tRp3368
I4352
tp3369
a(g2
(g3
(S'S5'
I0
I1
tRp3370
(I3
S'|'
NNNI5
I1
I0
tbS'power'
tRp3371
I4349
tp3372
a(g2
(g3
(S'S5'
I0
I1
tRp3373
(I3
S'|'
NNNI5
I1
I0
tbS'solut'
tRp3374
I4340
tp3375
a(g2
(g3
(S'S7'
I0
I1
tRp3376
(I3
S'|'
NNNI7
I1
I0
tbS'respect'
tRp3377
I4340
tp3378
a(g2
(g3
(S'S5'
I0
I1
tRp3379
(I3
S'|'
NNNI5
I1
I0
tbS'split'
tRp3380
I4335
tp3381
a(g2
(g3
(S'S6'
I0
I1
tRp3382
(I3
S'|'
NNNI6
I1
I0
tbS'poland'
tRp3383
I4335
tp3384
a(g2
(g3
(S'S4'
I0
I1
tRp3385
(I3
S'|'
NNNI4
I1
I0
tbS'repo'
tRp3386
I4334
tp3387
a(g2
(g3
(S'S5'
I0
I1
tRp3388
(I3
S'|'
NNNI5
I1
I0
tbS'choic'
tRp3389
I4309
tp3390
a(g2
(g3
(S'S3'
I0
I1
tRp3391
(I3
S'|'
NNNI3
I1
I0
tbS'tel'
tRp3392
I4308
tp3393
a(g2
(g3
(S'S5'
I0
I1
tRp3394
(I3
S'|'
NNNI5
I1
I0
tbS'widen'
tRp3395
I4307
tp3396
a(g2
(g3
(S'S6'
I0
I1
tRp3397
(I3
S'|'
NNNI6
I1
I0
tbS'exempt'
tRp3398
I4302
tp3399
a(g2
(g3
(S'S7'
I0
I1
tRp3400
(I3
S'|'
NNNI7
I1
I0
tbS'conclud'
tRp3401
I4292
tp3402
a(g2
(g3
(S'S4'
I0
I1
tRp3403
(I3
S'|'
NNNI4
I1
I0
tbS'nerv'
tRp3404
I4286
tp3405
a(g2
(g3
(S'S5'
I0
I1
tRp3406
(I3
S'|'
NNNI5
I1
I0
tbS'ordin'
tRp3407
I4280
tp3408
a(g2
(g3
(S'S5'
I0
I1
tRp3409
(I3
S'|'
NNNI5
I1
I0
tbS'handl'
tRp3410
I4271
tp3411
a(g2
(g3
(S'S5'
I0
I1
tRp3412
(I3
S'|'
NNNI5
I1
I0
tbS'heart'
tRp3413
I4228
tp3414
a(g2
(g3
(S'S7'
I0
I1
tRp3415
(I3
S'|'
NNNI7
I1
I0
tbS'identif'
tRp3416
I4224
tp3417
a(g2
(g3
(S'S4'
I0
I1
tRp3418
(I3
S'|'
NNNI4
I1
I0
tbS'idea'
tRp3419
I4221
tp3420
a(g2
(g3
(S'S4'
I0
I1
tRp3421
(I3
S'|'
NNNI4
I1
I0
tbS'writ'
tRp3422
I4218
tp3423
a(g2
(g3
(S'S4'
I0
I1
tRp3424
(I3
S'|'
NNNI4
I1
I0
tbS'stev'
tRp3425
I4218
tp3426
a(g2
(g3
(S'S8'
I0
I1
tRp3427
(I3
S'|'
NNNI8
I1
I0
tbS'dividend'
tRp3428
I4216
tp3429
a(g2
(g3
(S'S7'
I0
I1
tRp3430
(I3
S'|'
NNNI7
I1
I0
tbS'profess'
tRp3431
I4211
tp3432
a(g2
(g3
(S'S5'
I0
I1
tRp3433
(I3
S'|'
NNNI5
I1
I0
tbS'avoid'
tRp3434
I4210
tp3435
a(g2
(g3
(S'S7'
I0
I1
tRp3436
(I3
S'|'
NNNI7
I1
I0
tbS'address'
tRp3437
I4207
tp3438
a(g2
(g3
(S'S4'
I0
I1
tRp3439
(I3
S'|'
NNNI4
I1
I0
tbS'host'
tRp3440
I4205
tp3441
a(g2
(g3
(S'S6'
I0
I1
tRp3442
(I3
S'|'
NNNI6
I1
I0
tbS'colomb'
tRp3443
I4204
tp3444
a(g2
(g3
(S'S8'
I0
I1
tRp3445
(I3
S'|'
NNNI8
I1
I0
tbS'thailand'
tRp3446
I4203
tp3447
a(g2
(g3
(S'S5'
I0
I1
tRp3448
(I3
S'|'
NNNI5
I1
I0
tbS'appar'
tRp3449
I4196
tp3450
a(g2
(g3
(S'S7'
I0
I1
tRp3451
(I3
S'|'
NNNI7
I1
I0
tbS'concent'
tRp3452
I4195
tp3453
a(g2
(g3
(S'S6'
I0
I1
tRp3454
(I3
S'|'
NNNI6
I1
I0
tbS'takeov'
tRp3455
I4191
tp3456
a(g2
(g3
(S'S6'
I0
I1
tRp3457
(I3
S'|'
NNNI6
I1
I0
tbS'intent'
tRp3458
I4189
tp3459
a(g2
(g3
(S'S4'
I0
I1
tRp3460
(I3
S'|'
NNNI4
I1
I0
tbS'ally'
tRp3461
I4188
tp3462
a(g2
(g3
(S'S6'
I0
I1
tRp3463
(I3
S'|'
NNNI6
I1
I0
tbS'arrang'
tRp3464
I4184
tp3465
a(g2
(g3
(S'S6'
I0
I1
tRp3466
(I3
S'|'
NNNI6
I1
I0
tbS'integr'
tRp3467
I4168
tp3468
a(g2
(g3
(S'S9'
I0
I1
tRp3469
(I3
S'|'
NNNI9
I1
I0
tbS'fundament'
tRp3470
I4168
tp3471
a(g2
(g3
(S'S5'
I0
I1
tRp3472
(I3
S'|'
NNNI5
I1
I0
tbS'staff'
tRp3473
I4159
tp3474
a(g2
(g3
(S'S4'
I0
I1
tRp3475
(I3
S'|'
NNNI4
I1
I0
tbS'send'
tRp3476
I4159
tp3477
a(g2
(g3
(S'S9'
I0
I1
tRp3478
(I3
S'|'
NNNI9
I1
I0
tbS'recommend'
tRp3479
I4155
tp3480
a(g2
(g3
(S'S6'
I0
I1
tRp3481
(I3
S'|'
NNNI6
I1
I0
tbS'retain'
tRp3482
I4152
tp3483
a(g2
(g3
(S'S3'
I0
I1
tRp3484
(I3
S'|'
NNNI3
I1
I0
tbS'avg'
tRp3485
I4132
tp3486
a(g2
(g3
(S'S6'
I0
I1
tRp3487
(I3
S'|'
NNNI6
I1
I0
tbS'toront'
tRp3488
I4128
tp3489
a(g2
(g3
(S'S6'
I0
I1
tRp3490
(I3
S'|'
NNNI6
I1
I0
tbS'absent'
tRp3491
I4128
tp3492
a(g2
(g3
(S'S5'
I0
I1
tRp3493
(I3
S'|'
NNNI5
I1
I0
tbS'spent'
tRp3494
I4126
tp3495
a(g2
(g3
(S'S4'
I0
I1
tRp3496
(I3
S'|'
NNNI4
I1
I0
tbS'hurt'
tRp3497
I4125
tp3498
a(g2
(g3
(S'S5'
I0
I1
tRp3499
(I3
S'|'
NNNI5
I1
I0
tbS'brent'
tRp3500
I4124
tp3501
a(g2
(g3
(S'S5'
I0
I1
tRp3502
(I3
S'|'
NNNI5
I1
I0
tbS'basic'
tRp3503
I4124
tp3504
a(g2
(g3
(S'S3'
I0
I1
tRp3505
(I3
S'|'
NNNI3
I1
I0
tbS'cwt'
tRp3506
I4123
tp3507
a(g2
(g3
(S'S3'
I0
I1
tRp3508
(I3
S'|'
NNNI3
I1
I0
tbS'age'
tRp3509
I4118
tp3510
a(g2
(g3
(S'S6'
I0
I1
tRp3511
(I3
S'|'
NNNI6
I1
I0
tbS'spring'
tRp3512
I4117
tp3513
a(g2
(g3
(S'S6'
I0
I1
tRp3514
(I3
S'|'
NNNI6
I1
I0
tbS'machin'
tRp3515
I4112
tp3516
a(g2
(g3
(S'S5'
I0
I1
tRp3517
(I3
S'|'
NNNI5
I1
I0
tbS'austr'
tRp3518
I4110
tp3519
a(g2
(g3
(S'S7'
I0
I1
tRp3520
(I3
S'|'
NNNI7
I1
I0
tbS'consist'
tRp3521
I4098
tp3522
a(g2
(g3
(S'S5'
I0
I1
tRp3523
(I3
S'|'
NNNI5
I1
I0
tbS'maxim'
tRp3524
I4089
tp3525
a(g2
(g3
(S'S3'
I0
I1
tRp3526
(I3
S'|'
NNNI3
I1
I0
tbS'wav'
tRp3527
I4084
tp3528
a(g2
(g3
(S'S4'
I0
I1
tRp3529
(I3
S'|'
NNNI4
I1
I0
tbS'rank'
tRp3530
I4068
tp3531
a(g2
(g3
(S'S7'
I0
I1
tRp3532
(I3
S'|'
NNNI7
I1
I0
tbS'aggress'
tRp3533
I4066
tp3534
a(g2
(g3
(S'S4'
I0
I1
tRp3535
(I3
S'|'
NNNI4
I1
I0
tbS'silf'
tRp3536
I4064
tp3537
a(g2
(g3
(S'S5'
I0
I1
tRp3538
(I3
S'|'
NNNI5
I1
I0
tbS'decad'
tRp3539
I4056
tp3540
a(g2
(g3
(S'S6'
I0
I1
tRp3541
(I3
S'|'
NNNI6
I1
I0
tbS'disput'
tRp3542
I4048
tp3543
a(g2
(g3
(S'S6'
I0
I1
tRp3544
(I3
S'|'
NNNI6
I1
I0
tbS'boston'
tRp3545
I4045
tp3546
a(g2
(g3
(S'S4'
I0
I1
tRp3547
(I3
S'|'
NNNI4
I1
I0
tbS'arab'
tRp3548
I4041
tp3549
a(g2
(g3
(S'S3'
I0
I1
tRp3550
(I3
S'|'
NNNI3
I1
I0
tbS'jun'
tRp3551
I4039
tp3552
a(g2
(g3
(S'S6'
I0
I1
tRp3553
(I3
S'|'
NNNI6
I1
I0
tbS'assess'
tRp3554
I4038
tp3555
a(g2
(g3
(S'S4'
I0
I1
tRp3556
(I3
S'|'
NNNI4
I1
I0
tbS'cbot'
tRp3557
I4028
tp3558
a(g2
(g3
(S'S5'
I0
I1
tRp3559
(I3
S'|'
NNNI5
I1
I0
tbS'remov'
tRp3560
I4027
tp3561
a(g2
(g3
(S'S6'
I0
I1
tRp3562
(I3
S'|'
NNNI6
I1
I0
tbS'legisl'
tRp3563
I4027
tp3564
a(g2
(g3
(S'S4'
I0
I1
tRp3565
(I3
S'|'
NNNI4
I1
I0
tbS'docu'
tRp3566
I4022
tp3567
a(g2
(g3
(S'S5'
I0
I1
tRp3568
(I3
S'|'
NNNI5
I1
I0
tbS'rapid'
tRp3569
I4020
tp3570
a(g2
(g3
(S'S3'
I0
I1
tRp3571
(I3
S'|'
NNNI3
I1
I0
tbS'row'
tRp3572
I4014
tp3573
a(g2
(g3
(S'S4'
I0
I1
tRp3574
(I3
S'|'
NNNI4
I1
I0
tbS'roll'
tRp3575
I4011
tp3576
a(g2
(g3
(S'S5'
I0
I1
tRp3577
(I3
S'|'
NNNI5
I1
I0
tbS'retir'
tRp3578
I4002
tp3579
a(g2
(g3
(S'S7'
I0
I1
tRp3580
(I3
S'|'
NNNI7
I1
I0
tbS'assembl'
tRp3581
I3994
tp3582
a(g2
(g3
(S'S3'
I0
I1
tRp3583
(I3
S'|'
NNNI3
I1
I0
tbS'pro'
tRp3584
I3992
tp3585
a(g2
(g3
(S'S4'
I0
I1
tRp3586
(I3
S'|'
NNNI4
I1
I0
tbS'wide'
tRp3587
I3988
tp3588
a(g2
(g3
(S'S5'
I0
I1
tRp3589
(I3
S'|'
NNNI5
I1
I0
tbS'cheap'
tRp3590
I3978
tp3591
a(g2
(g3
(S'S5'
I0
I1
tRp3592
(I3
S'|'
NNNI5
I1
I0
tbS'assum'
tRp3593
I3973
tp3594
a(g2
(g3
(S'S4'
I0
I1
tRp3595
(I3
S'|'
NNNI4
I1
I0
tbS'buoy'
tRp3596
I3972
tp3597
a(g2
(g3
(S'S4'
I0
I1
tRp3598
(I3
S'|'
NNNI4
I1
I0
tbS'rain'
tRp3599
I3968
tp3600
a(g2
(g3
(S'S6'
I0
I1
tRp3601
(I3
S'|'
NNNI6
I1
I0
tbS'flight'
tRp3602
I3963
tp3603
a(g2
(g3
(S'S7'
I0
I1
tRp3604
(I3
S'|'
NNNI7
I1
I0
tbS'populat'
tRp3605
I3959
tp3606
a(g2
(g3
(S'S5'
I0
I1
tRp3607
(I3
S'|'
NNNI5
I1
I0
tbS'egypt'
tRp3608
I3957
tp3609
a(g2
(g3
(S'S4'
I0
I1
tRp3610
(I3
S'|'
NNNI4
I1
I0
tbS'cold'
tRp3611
I3955
tp3612
a(g2
(g3
(S'S5'
I0
I1
tRp3613
(I3
S'|'
NNNI5
I1
I0
tbS'squar'
tRp3614
I3951
tp3615
a(g2
(g3
(S'S4'
I0
I1
tRp3616
(I3
S'|'
NNNI4
I1
I0
tbS'argu'
tRp3617
I3949
tp3618
a(g2
(g3
(S'S6'
I0
I1
tRp3619
(I3
S'|'
NNNI6
I1
I0
tbS'speech'
tRp3620
I3944
tp3621
a(g2
(g3
(S'S3'
I0
I1
tRp3622
(I3
S'|'
NNNI3
I1
I0
tbS'fly'
tRp3623
I3940
tp3624
a(g2
(g3
(S'S4'
I0
I1
tRp3625
(I3
S'|'
NNNI4
I1
I0
tbS'tank'
tRp3626
I3938
tp3627
a(g2
(g3
(S'S6'
I0
I1
tRp3628
(I3
S'|'
NNNI6
I1
I0
tbS'vessel'
tRp3629
I3924
tp3630
a(g2
(g3
(S'S7'
I0
I1
tRp3631
(I3
S'|'
NNNI7
I1
I0
tbS'request'
tRp3632
I3920
tp3633
a(g2
(g3
(S'S4'
I0
I1
tRp3634
(I3
S'|'
NNNI4
I1
I0
tbS'kind'
tRp3635
I3920
tp3636
a(g2
(g3
(S'S6'
I0
I1
tRp3637
(I3
S'|'
NNNI6
I1
I0
tbS'specif'
tRp3638
I3917
tp3639
a(g2
(g3
(S'S4'
I0
I1
tRp3640
(I3
S'|'
NNNI4
I1
I0
tbS'extr'
tRp3641
I3913
tp3642
a(g2
(g3
(S'S5'
I0
I1
tRp3643
(I3
S'|'
NNNI5
I1
I0
tbS'grand'
tRp3644
I3911
tp3645
a(g2
(g3
(S'S5'
I0
I1
tRp3646
(I3
S'|'
NNNI5
I1
I0
tbS'plung'
tRp3647
I3888
tp3648
a(g2
(g3
(S'S3'
I0
I1
tRp3649
(I3
S'|'
NNNI3
I1
I0
tbS'min'
tRp3650
I3888
tp3651
a(g2
(g3
(S'S6'
I0
I1
tRp3652
(I3
S'|'
NNNI6
I1
I0
tbS'arrest'
tRp3653
I3880
tp3654
a(g2
(g3
(S'S4'
I0
I1
tRp3655
(I3
S'|'
NNNI4
I1
I0
tbS'rout'
tRp3656
I3878
tp3657
a(g2
(g3
(S'S4'
I0
I1
tRp3658
(I3
S'|'
NNNI4
I1
I0
tbS'mass'
tRp3659
I3878
tp3660
a(g2
(g3
(S'S5'
I0
I1
tRp3661
(I3
S'|'
NNNI5
I1
I0
tbS'tumbl'
tRp3662
I3868
tp3663
a(g2
(g3
(S'S5'
I0
I1
tRp3664
(I3
S'|'
NNNI5
I1
I0
tbS'islam'
tRp3665
I3866
tp3666
a(g2
(g3
(S'S7'
I0
I1
tRp3667
(I3
S'|'
NNNI7
I1
I0
tbS'sidelin'
tRp3668
I3854
tp3669
a(g2
(g3
(S'S4'
I0
I1
tRp3670
(I3
S'|'
NNNI4
I1
I0
tbS'iraq'
tRp3671
I3854
tp3672
a(g2
(g3
(S'S8'
I0
I1
tRp3673
(I3
S'|'
NNNI8
I1
I0
tbS'restrict'
tRp3674
I3849
tp3675
a(g2
(g3
(S'S4'
I0
I1
tRp3676
(I3
S'|'
NNNI4
I1
I0
tbS'scot'
tRp3677
I3842
tp3678
a(g2
(g3
(S'S5'
I0
I1
tRp3679
(I3
S'|'
NNNI5
I1
I0
tbS'sheet'
tRp3680
I3841
tp3681
a(g2
(g3
(S'S6'
I0
I1
tRp3682
(I3
S'|'
NNNI6
I1
I0
tbS'client'
tRp3683
I3841
tp3684
a(g2
(g3
(S'S5'
I0
I1
tRp3685
(I3
S'|'
NNNI5
I1
I0
tbS'alleg'
tRp3686
I3839
tp3687
a(g2
(g3
(S'S7'
I0
I1
tRp3688
(I3
S'|'
NNNI7
I1
I0
tbS'freight'
tRp3689
I3837
tp3690
a(g2
(g3
(S'S5'
I0
I1
tRp3691
(I3
S'|'
NNNI5
I1
I0
tbS'risen'
tRp3692
I3834
tp3693
a(g2
(g3
(S'S4'
I0
I1
tRp3694
(I3
S'|'
NNNI4
I1
I0
tbS'even'
tRp3695
I3832
tp3696
a(g2
(g3
(S'S6'
I0
I1
tRp3697
(I3
S'|'
NNNI6
I1
I0
tbS'purpos'
tRp3698
I3830
tp3699
a(g2
(g3
(S'S4'
I0
I1
tRp3700
(I3
S'|'
NNNI4
I1
I0
tbS'bomb'
tRp3701
I3830
tp3702
a(g2
(g3
(S'S4'
I0
I1
tRp3703
(I3
S'|'
NNNI4
I1
I0
tbS'blam'
tRp3704
I3820
tp3705
a(g2
(g3
(S'S4'
I0
I1
tRp3706
(I3
S'|'
NNNI4
I1
I0
tbS'pact'
tRp3707
I3798
tp3708
a(g2
(g3
(S'S5'
I0
I1
tRp3709
(I3
S'|'
NNNI5
I1
I0
tbS'speed'
tRp3710
I3792
tp3711
a(g2
(g3
(S'S5'
I0
I1
tRp3712
(I3
S'|'
NNNI5
I1
I0
tbS'cattl'
tRp3713
I3783
tp3714
a(g2
(g3
(S'S7'
I0
I1
tRp3715
(I3
S'|'
NNNI7
I1
I0
tbS'disclos'
tRp3716
I3770
tp3717
a(g2
(g3
(S'S7'
I0
I1
tRp3718
(I3
S'|'
NNNI7
I1
I0
tbS'content'
tRp3719
I3770
tp3720
a(g2
(g3
(S'S7'
I0
I1
tRp3721
(I3
S'|'
NNNI7
I1
I0
tbS'guarant'
tRp3722
I3765
tp3723
a(g2
(g3
(S'S3'
I0
I1
tRp3724
(I3
S'|'
NNNI3
I1
I0
tbS'los'
tRp3725
I3758
tp3726
a(g2
(g3
(S'S8'
I0
I1
tRp3727
(I3
S'|'
NNNI8
I1
I0
tbS'wholesal'
tRp3728
I3755
tp3729
a(g2
(g3
(S'S5'
I0
I1
tRp3730
(I3
S'|'
NNNI5
I1
I0
tbS'upsid'
tRp3731
I3751
tp3732
a(g2
(g3
(S'S6'
I0
I1
tRp3733
(I3
S'|'
NNNI6
I1
I0
tbS'bushel'
tRp3734
I3744
tp3735
a(g2
(g3
(S'S5'
I0
I1
tRp3736
(I3
S'|'
NNNI5
I1
I0
tbS'medic'
tRp3737
I3742
tp3738
a(g2
(g3
(S'S6'
I0
I1
tRp3739
(I3
S'|'
NNNI6
I1
I0
tbS'switch'
tRp3740
I3740
tp3741
a(g2
(g3
(S'S3'
I0
I1
tRp3742
(I3
S'|'
NNNI3
I1
I0
tbS'leg'
tRp3743
I3732
tp3744
a(g2
(g3
(S'S4'
I0
I1
tRp3745
(I3
S'|'
NNNI4
I1
I0
tbS'scal'
tRp3746
I3729
tp3747
a(g2
(g3
(S'S8'
I0
I1
tRp3748
(I3
S'|'
NNNI8
I1
I0
tbS'consecut'
tRp3749
I3728
tp3750
a(g2
(g3
(S'S3'
I0
I1
tRp3751
(I3
S'|'
NNNI3
I1
I0
tbS'lbs'
tRp3752
I3726
tp3753
a(g2
(g3
(S'S4'
I0
I1
tRp3754
(I3
S'|'
NNNI4
I1
I0
tbS'styl'
tRp3755
I3724
tp3756
a(g2
(g3
(S'S5'
I0
I1
tRp3757
(I3
S'|'
NNNI5
I1
I0
tbS'clash'
tRp3758
I3723
tp3759
a(g2
(g3
(S'S5'
I0
I1
tRp3760
(I3
S'|'
NNNI5
I1
I0
tbS'shift'
tRp3761
I3716
tp3762
a(g2
(g3
(S'S7'
I0
I1
tRp3763
(I3
S'|'
NNNI7
I1
I0
tbS'command'
tRp3764
I3715
tp3765
a(g2
(g3
(S'S6'
I0
I1
tRp3766
(I3
S'|'
NNNI6
I1
I0
tbS'receib'
tRp3767
I3713
tp3768
a(g2
(g3
(S'S5'
I0
I1
tRp3769
(I3
S'|'
NNNI5
I1
I0
tbS'slump'
tRp3770
I3712
tp3771
a(g2
(g3
(S'S7'
I0
I1
tRp3772
(I3
S'|'
NNNI7
I1
I0
tbS'passeng'
tRp3773
I3707
tp3774
a(g2
(g3
(S'S5'
I0
I1
tRp3775
(I3
S'|'
NNNI5
I1
I0
tbS'mortg'
tRp3776
I3707
tp3777
a(g2
(g3
(S'S6'
I0
I1
tRp3778
(I3
S'|'
NNNI6
I1
I0
tbS'worldw'
tRp3779
I3695
tp3780
a(g2
(g3
(S'S5'
I0
I1
tRp3781
(I3
S'|'
NNNI5
I1
I0
tbS'steer'
tRp3782
I3693
tp3783
a(g2
(g3
(S'S12'
I0
I1
tRp3784
(I3
S'|'
NNNI12
I1
I0
tbS'johannesburg'
tRp3785
I3684
tp3786
a(g2
(g3
(S'S5'
I0
I1
tRp3787
(I3
S'|'
NNNI5
I1
I0
tbS'royal'
tRp3788
I3683
tp3789
a(g2
(g3
(S'S3'
I0
I1
tRp3790
(I3
S'|'
NNNI3
I1
I0
tbS'dlr'
tRp3791
I3676
tp3792
a(g2
(g3
(S'S4'
I0
I1
tRp3793
(I3
S'|'
NNNI4
I1
I0
tbS'chri'
tRp3794
I3676
tp3795
a(g2
(g3
(S'S4'
I0
I1
tRp3796
(I3
S'|'
NNNI4
I1
I0
tbS'banc'
tRp3797
I3675
tp3798
a(g2
(g3
(S'S8'
I0
I1
tRp3799
(I3
S'|'
NNNI8
I1
I0
tbS'guerrill'
tRp3800
I3674
tp3801
a(g2
(g3
(S'S8'
I0
I1
tRp3802
(I3
S'|'
NNNI8
I1
I0
tbS'incorpor'
tRp3803
I3671
tp3804
a(g2
(g3
(S'S6'
I0
I1
tRp3805
(I3
S'|'
NNNI6
I1
I0
tbS'altern'
tRp3806
I3669
tp3807
a(g2
(g3
(S'S6'
I0
I1
tRp3808
(I3
S'|'
NNNI6
I1
I0
tbS'moslem'
tRp3809
I3663
tp3810
a(g2
(g3
(S'S5'
I0
I1
tRp3811
(I3
S'|'
NNNI5
I1
I0
tbS'occur'
tRp3812
I3661
tp3813
a(g2
(g3
(S'S3'
I0
I1
tRp3814
(I3
S'|'
NNNI3
I1
I0
tbS'tru'
tRp3815
I3657
tp3816
a(g2
(g3
(S'S6'
I0
I1
tRp3817
(I3
S'|'
NNNI6
I1
I0
tbS'recogn'
tRp3818
I3648
tp3819
a(g2
(g3
(S'S4'
I0
I1
tRp3820
(I3
S'|'
NNNI4
I1
I0
tbS'dist'
tRp3821
I3647
tp3822
a(g2
(g3
(S'S5'
I0
I1
tRp3823
(I3
S'|'
NNNI5
I1
I0
tbS'trill'
tRp3824
I3642
tp3825
a(g2
(g3
(S'S6'
I0
I1
tRp3826
(I3
S'|'
NNNI6
I1
I0
tbS'florid'
tRp3827
I3642
tp3828
a(g2
(g3
(S'S4'
I0
I1
tRp3829
(I3
S'|'
NNNI4
I1
I0
tbS'rive'
tRp3830
I3635
tp3831
a(g2
(g3
(S'S4'
I0
I1
tRp3832
(I3
S'|'
NNNI4
I1
I0
tbS'vill'
tRp3833
I3630
tp3834
a(g2
(g3
(S'S7'
I0
I1
tRp3835
(I3
S'|'
NNNI7
I1
I0
tbS'collect'
tRp3836
I3627
tp3837
a(g2
(g3
(S'S5'
I0
I1
tRp3838
(I3
S'|'
NNNI5
I1
I0
tbS'bounc'
tRp3839
I3627
tp3840
a(g2
(g3
(S'S6'
I0
I1
tRp3841
(I3
S'|'
NNNI6
I1
I0
tbS'accord'
tRp3842
I3624
tp3843
a(g2
(g3
(S'S6'
I0
I1
tRp3844
(I3
S'|'
NNNI6
I1
I0
tbS'approx'
tRp3845
I3622
tp3846
a(g2
(g3
(S'S5'
I0
I1
tRp3847
(I3
S'|'
NNNI5
I1
I0
tbS'simpl'
tRp3848
I3619
tp3849
a(g2
(g3
(S'S9'
I0
I1
tRp3850
(I3
S'|'
NNNI9
I1
I0
tbS'constitut'
tRp3851
I3615
tp3852
a(g2
(g3
(S'S6'
I0
I1
tRp3853
(I3
S'|'
NNNI6
I1
I0
tbS'remark'
tRp3854
I3614
tp3855
a(g2
(g3
(S'S6'
I0
I1
tRp3856
(I3
S'|'
NNNI6
I1
I0
tbS'explor'
tRp3857
I3614
tp3858
a(g2
(g3
(S'S7'
I0
I1
tRp3859
(I3
S'|'
NNNI7
I1
I0
tbS'belgian'
tRp3860
I3614
tp3861
a(g2
(g3
(S'S6'
I0
I1
tRp3862
(I3
S'|'
NNNI6
I1
I0
tbS'applic'
tRp3863
I3610
tp3864
a(g2
(g3
(S'S6'
I0
I1
tRp3865
(I3
S'|'
NNNI6
I1
I0
tbS'parent'
tRp3866
I3609
tp3867
a(g2
(g3
(S'S4'
I0
I1
tRp3868
(I3
S'|'
NNNI4
I1
I0
tbS'thai'
tRp3869
I3599
tp3870
a(g2
(g3
(S'S5'
I0
I1
tRp3871
(I3
S'|'
NNNI5
I1
I0
tbS'admit'
tRp3872
I3598
tp3873
a(g2
(g3
(S'S4'
I0
I1
tRp3874
(I3
S'|'
NNNI4
I1
I0
tbS'tone'
tRp3875
I3595
tp3876
a(g2
(g3
(S'S6'
I0
I1
tRp3877
(I3
S'|'
NNNI6
I1
I0
tbS'histor'
tRp3878
I3591
tp3879
a(g2
(g3
(S'S9'
I0
I1
tRp3880
(I3
S'|'
NNNI9
I1
I0
tbS'intervent'
tRp3881
I3583
tp3882
a(g2
(g3
(S'S6'
I0
I1
tRp3883
(I3
S'|'
NNNI6
I1
I0
tbS'tourna'
tRp3884
I3578
tp3885
a(g2
(g3
(S'S3'
I0
I1
tRp3886
(I3
S'|'
NNNI3
I1
I0
tbS'hog'
tRp3887
I3572
tp3888
a(g2
(g3
(S'S8'
I0
I1
tRp3889
(I3
S'|'
NNNI8
I1
I0
tbS'eventual'
tRp3890
I3570
tp3891
a(g2
(g3
(S'S5'
I0
I1
tRp3892
(I3
S'|'
NNNI5
I1
I0
tbS'soldy'
tRp3893
I3569
tp3894
a(g2
(g3
(S'S4'
I0
I1
tRp3895
(I3
S'|'
NNNI4
I1
I0
tbS'judg'
tRp3896
I3567
tp3897
a(g2
(g3
(S'S5'
I0
I1
tRp3898
(I3
S'|'
NNNI5
I1
I0
tbS'brand'
tRp3899
I3564
tp3900
a(g2
(g3
(S'S4'
I0
I1
tRp3901
(I3
S'|'
NNNI4
I1
I0
tbS'zone'
tRp3902
I3561
tp3903
a(g2
(g3
(S'S6'
I0
I1
tRp3904
(I3
S'|'
NNNI6
I1
I0
tbS'warsaw'
tRp3905
I3555
tp3906
a(g2
(g3
(S'S6'
I0
I1
tRp3907
(I3
S'|'
NNNI6
I1
I0
tbS'summit'
tRp3908
I3554
tp3909
a(g2
(g3
(S'S4'
I0
I1
tRp3910
(I3
S'|'
NNNI4
I1
I0
tbS'beij'
tRp3911
I3553
tp3912
a(g2
(g3
(S'S4'
I0
I1
tRp3913
(I3
S'|'
NNNI4
I1
I0
tbS'bulk'
tRp3914
I3552
tp3915
a(g2
(g3
(S'S4'
I0
I1
tRp3916
(I3
S'|'
NNNI4
I1
I0
tbS'trip'
tRp3917
I3549
tp3918
a(g2
(g3
(S'S7'
I0
I1
tRp3919
(I3
S'|'
NNNI7
I1
I0
tbS'complex'
tRp3920
I3547
tp3921
a(g2
(g3
(S'S4'
I0
I1
tRp3922
(I3
S'|'
NNNI4
I1
I0
tbS'halt'
tRp3923
I3545
tp3924
a(g2
(g3
(S'S6'
I0
I1
tRp3925
(I3
S'|'
NNNI6
I1
I0
tbS'abroad'
tRp3926
I3542
tp3927
a(g2
(g3
(S'S5'
I0
I1
tRp3928
(I3
S'|'
NNNI5
I1
I0
tbS'manil'
tRp3929
I3533
tp3930
a(g2
(g3
(S'S7'
I0
I1
tRp3931
(I3
S'|'
NNNI7
I1
I0
tbS'equival'
tRp3932
I3530
tp3933
a(g2
(g3
(S'S5'
I0
I1
tRp3934
(I3
S'|'
NNNI5
I1
I0
tbS'order'
tRp3935
I3529
tp3936
a(g2
(g3
(S'S7'
I0
I1
tRp3937
(I3
S'|'
NNNI7
I1
I0
tbS'captain'
tRp3938
I3529
tp3939
a(g2
(g3
(S'S8'
I0
I1
tRp3940
(I3
S'|'
NNNI8
I1
I0
tbS'substant'
tRp3941
I3518
tp3942
a(g2
(g3
(S'S5'
I0
I1
tRp3943
(I3
S'|'
NNNI5
I1
I0
tbS'impos'
tRp3944
I3517
tp3945
a(g2
(g3
(S'S6'
I0
I1
tRp3946
(I3
S'|'
NNNI6
I1
I0
tbS'appeal'
tRp3947
I3516
tp3948
a(g2
(g3
(S'S9'
I0
I1
tRp3949
(I3
S'|'
NNNI9
I1
I0
tbS'broadcast'
tRp3950
I3514
tp3951
a(g2
(g3
(S'S6'
I0
I1
tRp3952
(I3
S'|'
NNNI6
I1
I0
tbS'transf'
tRp3953
I3512
tp3954
a(g2
(g3
(S'S5'
I0
I1
tRp3955
(I3
S'|'
NNNI5
I1
I0
tbS'indic'
tRp3956
I3511
tp3957
a(g2
(g3
(S'S4'
I0
I1
tRp3958
(I3
S'|'
NNNI4
I1
I0
tbS'didn'
tRp3959
I3510
tp3960
a(g2
(g3
(S'S6'
I0
I1
tRp3961
(I3
S'|'
NNNI6
I1
I0
tbS'nasdaq'
tRp3962
I3504
tp3963
a(g2
(g3
(S'S6'
I0
I1
tRp3964
(I3
S'|'
NNNI6
I1
I0
tbS'excess'
tRp3965
I3501
tp3966
a(g2
(g3
(S'S3'
I0
I1
tRp3967
(I3
S'|'
NNNI3
I1
I0
tbS'ent'
tRp3968
I3499
tp3969
a(g2
(g3
(S'S7'
I0
I1
tRp3970
(I3
S'|'
NNNI7
I1
I0
tbS'princip'
tRp3971
I3498
tp3972
a(g2
(g3
(S'S4'
I0
I1
tRp3973
(I3
S'|'
NNNI4
I1
I0
tbS'pend'
tRp3974
I3497
tp3975
a(g2
(g3
(S'S3'
I0
I1
tRp3976
(I3
S'|'
NNNI3
I1
I0
tbS'bar'
tRp3977
I3496
tp3978
a(g2
(g3
(S'S3'
I0
I1
tRp3979
(I3
S'|'
NNNI3
I1
I0
tbS'bat'
tRp3980
I3495
tp3981
a(g2
(g3
(S'S6'
I0
I1
tRp3982
(I3
S'|'
NNNI6
I1
I0
tbS'pictur'
tRp3983
I3488
tp3984
a(g2
(g3
(S'S8'
I0
I1
tRp3985
(I3
S'|'
NNNI8
I1
I0
tbS'democrat'
tRp3986
I3475
tp3987
a(g2
(g3
(S'S6'
I0
I1
tRp3988
(I3
S'|'
NNNI6
I1
I0
tbS'tempor'
tRp3989
I3474
tp3990
a(g2
(g3
(S'S5'
I0
I1
tRp3991
(I3
S'|'
NNNI5
I1
I0
tbS'green'
tRp3992
I3474
tp3993
a(g2
(g3
(S'S7'
I0
I1
tRp3994
(I3
S'|'
NNNI7
I1
I0
tbS'connect'
tRp3995
I3474
tp3996
a(g2
(g3
(S'S6'
I0
I1
tRp3997
(I3
S'|'
NNNI6
I1
I0
tbS'exceed'
tRp3998
I3472
tp3999
a(g2
(g3
(S'S8'
I0
I1
tRp4000
(I3
S'|'
NNNI8
I1
I0
tbS'attribut'
tRp4001
I3469
tp4002
a(g2
(g3
(S'S7'
I0
I1
tRp4003
(I3
S'|'
NNNI7
I1
I0
tbS'stanley'
tRp4004
I3468
tp4005
a(g2
(g3
(S'S2'
I0
I1
tRp4006
(I3
S'|'
NNNI2
I1
I0
tbS'aa'
tRp4007
I3460
tp4008
a(g2
(g3
(S'S6'
I0
I1
tRp4009
(I3
S'|'
NNNI6
I1
I0
tbS'turkey'
tRp4010
I3459
tp4011
a(g2
(g3
(S'S5'
I0
I1
tRp4012
(I3
S'|'
NNNI5
I1
I0
tbS'updat'
tRp4013
I3457
tp4014
a(g2
(g3
(S'S7'
I0
I1
tRp4015
(I3
S'|'
NNNI7
I1
I0
tbS'suspect'
tRp4016
I3456
tp4017
a(g2
(g3
(S'S6'
I0
I1
tRp4018
(I3
S'|'
NNNI6
I1
I0
tbS'sought'
tRp4019
I3456
tp4020
a(g2
(g3
(S'S4'
I0
I1
tRp4021
(I3
S'|'
NNNI4
I1
I0
tbS'band'
tRp4022
I3455
tp4023
a(g2
(g3
(S'S4'
I0
I1
tRp4024
(I3
S'|'
NNNI4
I1
I0
tbS'card'
tRp4025
I3453
tp4026
a(g2
(g3
(S'S5'
I0
I1
tRp4027
(I3
S'|'
NNNI5
I1
I0
tbS'minus'
tRp4028
I3450
tp4029
a(g2
(g3
(S'S4'
I0
I1
tRp4030
(I3
S'|'
NNNI4
I1
I0
tbS'hill'
tRp4031
I3450
tp4032
a(g2
(g3
(S'S5'
I0
I1
tRp4033
(I3
S'|'
NNNI5
I1
I0
tbS'defin'
tRp4034
I3450
tp4035
a(g2
(g3
(S'S7'
I0
I1
tRp4036
(I3
S'|'
NNNI7
I1
I0
tbS'collaps'
tRp4037
I3450
tp4038
a(g2
(g3
(S'S8'
I0
I1
tRp4039
(I3
S'|'
NNNI8
I1
I0
tbS'approxim'
tRp4040
I3450
tp4041
a(g2
(g3
(S'S4'
I0
I1
tRp4042
(I3
S'|'
NNNI4
I1
I0
tbS'ball'
tRp4043
I3446
tp4044
a(g2
(g3
(S'S8'
I0
I1
tRp4045
(I3
S'|'
NNNI8
I1
I0
tbS'momentum'
tRp4046
I3445
tp4047
a(g2
(g3
(S'S5'
I0
I1
tRp4048
(I3
S'|'
NNNI5
I1
I0
tbS'wound'
tRp4049
I3443
tp4050
a(g2
(g3
(S'S4'
I0
I1
tRp4051
(I3
S'|'
NNNI4
I1
I0
tbS'loui'
tRp4052
I3441
tp4053
a(g2
(g3
(S'S4'
I0
I1
tRp4054
(I3
S'|'
NNNI4
I1
I0
tbS'fine'
tRp4055
I3439
tp4056
a(g2
(g3
(S'S3'
I0
I1
tRp4057
(I3
S'|'
NNNI3
I1
I0
tbS'bay'
tRp4058
I3437
tp4059
a(g2
(g3
(S'S6'
I0
I1
tRp4060
(I3
S'|'
NNNI6
I1
I0
tbS'dismit'
tRp4061
I3436
tp4062
a(g2
(g3
(S'S7'
I0
I1
tRp4063
(I3
S'|'
NNNI7
I1
I0
tbS'sulphur'
tRp4064
I3435
tp4065
a(g2
(g3
(S'S4'
I0
I1
tRp4066
(I3
S'|'
NNNI4
I1
I0
tbS'feet'
tRp4067
I3427
tp4068
a(g2
(g3
(S'S4'
I0
I1
tRp4069
(I3
S'|'
NNNI4
I1
I0
tbS'felt'
tRp4070
I3423
tp4071
a(g2
(g3
(S'S5'
I0
I1
tRp4072
(I3
S'|'
NNNI5
I1
I0
tbS'debat'
tRp4073
I3415
tp4074
a(g2
(g3
(S'S4'
I0
I1
tRp4075
(I3
S'|'
NNNI4
I1
I0
tbS'rich'
tRp4076
I3413
tp4077
a(g2
(g3
(S'S6'
I0
I1
tRp4078
(I3
S'|'
NNNI6
I1
I0
tbS'compon'
tRp4079
I3412
tp4080
a(g2
(g3
(S'S6'
I0
I1
tRp4081
(I3
S'|'
NNNI6
I1
I0
tbS'submit'
tRp4082
I3410
tp4083
a(g2
(g3
(S'S4'
I0
I1
tRp4084
(I3
S'|'
NNNI4
I1
I0
tbS'ounc'
tRp4085
I3410
tp4086
a(g2
(g3
(S'S5'
I0
I1
tRp4087
(I3
S'|'
NNNI5
I1
I0
tbS'truck'
tRp4088
I3406
tp4089
a(g2
(g3
(S'S2'
I0
I1
tRp4090
(I3
S'|'
NNNI2
I1
I0
tbS'bp'
tRp4091
I3401
tp4092
a(g2
(g3
(S'S5'
I0
I1
tRp4093
(I3
S'|'
NNNI5
I1
I0
tbS'throw'
tRp4094
I3399
tp4095
a(g2
(g3
(S'S6'
I0
I1
tRp4096
(I3
S'|'
NNNI6
I1
I0
tbS'object'
tRp4097
I3387
tp4098
a(g2
(g3
(S'S9'
I0
I1
tRp4099
(I3
S'|'
NNNI9
I1
I0
tbS'consensus'
tRp4100
I3384
tp4101
a(g2
(g3
(S'S5'
I0
I1
tRp4102
(I3
S'|'
NNNI5
I1
I0
tbS'notic'
tRp4103
I3378
tp4104
a(g2
(g3
(S'S5'
I0
I1
tRp4105
(I3
S'|'
NNNI5
I1
I0
tbS'guard'
tRp4106
I3377
tp4107
a(g2
(g3
(S'S6'
I0
I1
tRp4108
(I3
S'|'
NNNI6
I1
I0
tbS'albert'
tRp4109
I3374
tp4110
a(g2
(g3
(S'S8'
I0
I1
tRp4111
(I3
S'|'
NNNI8
I1
I0
tbS'downward'
tRp4112
I3368
tp4113
a(g2
(g3
(S'S8'
I0
I1
tRp4114
(I3
S'|'
NNNI8
I1
I0
tbS'aircraft'
tRp4115
I3360
tp4116
a(g2
(g3
(S'S8'
I0
I1
tRp4117
(I3
S'|'
NNNI8
I1
I0
tbS'interior'
tRp4118
I3355
tp4119
a(g2
(g3
(S'S3'
I0
I1
tRp4120
(I3
S'|'
NNNI3
I1
I0
tbS'jul'
tRp4121
I3354
tp4122
a(g2
(g3
(S'S5'
I0
I1
tRp4123
(I3
S'|'
NNNI5
I1
I0
tbS'crowd'
tRp4124
I3347
tp4125
a(g2
(g3
(S'S6'
I0
I1
tRp4126
(I3
S'|'
NNNI6
I1
I0
tbS'barney'
tRp4127
I3340
tp4128
a(g2
(g3
(S'S5'
I0
I1
tRp4129
(I3
S'|'
NNNI5
I1
I0
tbS'insid'
tRp4130
I3334
tp4131
a(g2
(g3
(S'S7'
I0
I1
tRp4132
(I3
S'|'
NNNI7
I1
I0
tbS'cricket'
tRp4133
I3328
tp4134
a(g2
(g3
(S'S9'
I0
I1
tRp4135
(I3
S'|'
NNNI9
I1
I0
tbS'repurchas'
tRp4136
I3327
tp4137
a(g2
(g3
(S'S3'
I0
I1
tRp4138
(I3
S'|'
NNNI3
I1
I0
tbS'sep'
tRp4139
I3325
tp4140
a(g2
(g3
(S'S5'
I0
I1
tRp4141
(I3
S'|'
NNNI5
I1
I0
tbS'worst'
tRp4142
I3321
tp4143
a(g2
(g3
(S'S4'
I0
I1
tRp4144
(I3
S'|'
NNNI4
I1
I0
tbS'jean'
tRp4145
I3320
tp4146
a(g2
(g3
(S'S3'
I0
I1
tRp4147
(I3
S'|'
NNNI3
I1
I0
tbS'fin'
tRp4148
I3314
tp4149
a(g2
(g3
(S'S5'
I0
I1
tRp4150
(I3
S'|'
NNNI5
I1
I0
tbS'adopt'
tRp4151
I3314
tp4152
a(g2
(g3
(S'S6'
I0
I1
tRp4153
(I3
S'|'
NNNI6
I1
I0
tbS'career'
tRp4154
I3311
tp4155
a(g2
(g3
(S'S5'
I0
I1
tRp4156
(I3
S'|'
NNNI5
I1
I0
tbS'drift'
tRp4157
I3308
tp4158
a(g2
(g3
(S'S7'
I0
I1
tRp4159
(I3
S'|'
NNNI7
I1
I0
tbS'brussel'
tRp4160
I3308
tp4161
a(g2
(g3
(S'S6'
I0
I1
tRp4162
(I3
S'|'
NNNI6
I1
I0
tbS'jakart'
tRp4163
I3305
tp4164
a(g2
(g3
(S'S3'
I0
I1
tRp4165
(I3
S'|'
NNNI3
I1
I0
tbS'gov'
tRp4166
I3305
tp4167
a(g2
(g3
(S'S5'
I0
I1
tRp4168
(I3
S'|'
NNNI5
I1
I0
tbS'pursu'
tRp4169
I3303
tp4170
a(g2
(g3
(S'S4'
I0
I1
tRp4171
(I3
S'|'
NNNI4
I1
I0
tbS'impl'
tRp4172
I3300
tp4173
a(g2
(g3
(S'S7'
I0
I1
tRp4174
(I3
S'|'
NNNI7
I1
I0
tbS'enterpr'
tRp4175
I3299
tp4176
a(g2
(g3
(S'S11'
I0
I1
tRp4177
(I3
S'|'
NNNI11
I1
I0
tbS'switzerland'
tRp4178
I3298
tp4179
a(g2
(g3
(S'S4'
I0
I1
tRp4180
(I3
S'|'
NNNI4
I1
I0
tbS'rand'
tRp4181
I3298
tp4182
a(g2
(g3
(S'S7'
I0
I1
tRp4183
(I3
S'|'
NNNI7
I1
I0
tbS'revolut'
tRp4184
I3297
tp4185
a(g2
(g3
(S'S3'
I0
I1
tRp4186
(I3
S'|'
NNNI3
I1
I0
tbS'mgr'
tRp4187
I3295
tp4188
a(g2
(g3
(S'S4'
I0
I1
tRp4189
(I3
S'|'
NNNI4
I1
I0
tbS'kans'
tRp4190
I3293
tp4191
a(g2
(g3
(S'S4'
I0
I1
tRp4192
(I3
S'|'
NNNI4
I1
I0
tbS'shop'
tRp4193
I3286
tp4194
a(g2
(g3
(S'S5'
I0
I1
tRp4195
(I3
S'|'
NNNI5
I1
I0
tbS'colon'
tRp4196
I3284
tp4197
a(g2
(g3
(S'S5'
I0
I1
tRp4198
(I3
S'|'
NNNI5
I1
I0
tbS'incid'
tRp4199
I3280
tp4200
a(g2
(g3
(S'S3'
I0
I1
tRp4201
(I3
S'|'
NNNI3
I1
I0
tbS'bob'
tRp4202
I3278
tp4203
a(g2
(g3
(S'S6'
I0
I1
tRp4204
(I3
S'|'
NNNI6
I1
I0
tbS'offset'
tRp4205
I3271
tp4206
a(g2
(g3
(S'S6'
I0
I1
tRp4207
(I3
S'|'
NNNI6
I1
I0
tbS'relief'
tRp4208
I3261
tp4209
a(g2
(g3
(S'S4'
I0
I1
tRp4210
(I3
S'|'
NNNI4
I1
I0
tbS'walk'
tRp4211
I3258
tp4212
a(g2
(g3
(S'S5'
I0
I1
tRp4213
(I3
S'|'
NNNI5
I1
I0
tbS'compr'
tRp4214
I3258
tp4215
a(g2
(g3
(S'S5'
I0
I1
tRp4216
(I3
S'|'
NNNI5
I1
I0
tbS'latin'
tRp4217
I3253
tp4218
a(g2
(g3
(S'S10'
I0
I1
tRp4219
(I3
S'|'
NNNI10
I1
I0
tbS'netherland'
tRp4220
I3252
tp4221
a(g2
(g3
(S'S8'
I0
I1
tRp4222
(I3
S'|'
NNNI8
I1
I0
tbS'subscrib'
tRp4223
I3251
tp4224
a(g2
(g3
(S'S9'
I0
I1
tRp4225
(I3
S'|'
NNNI9
I1
I0
tbS'underwrit'
tRp4226
I3250
tp4227
a(g2
(g3
(S'S7'
I0
I1
tRp4228
(I3
S'|'
NNNI7
I1
I0
tbS'virtual'
tRp4229
I3249
tp4230
a(g2
(g3
(S'S6'
I0
I1
tRp4231
(I3
S'|'
NNNI6
I1
I0
tbS'captur'
tRp4232
I3248
tp4233
a(g2
(g3
(S'S5'
I0
I1
tRp4234
(I3
S'|'
NNNI5
I1
I0
tbS'mobil'
tRp4235
I3245
tp4236
a(g2
(g3
(S'S4'
I0
I1
tRp4237
(I3
S'|'
NNNI4
I1
I0
tbS'euro'
tRp4238
I3240
tp4239
a(g2
(g3
(S'S6'
I0
I1
tRp4240
(I3
S'|'
NNNI6
I1
I0
tbS'portug'
tRp4241
I3237
tp4242
a(g2
(g3
(S'S6'
I0
I1
tRp4243
(I3
S'|'
NNNI6
I1
I0
tbS'mutual'
tRp4244
I3224
tp4245
a(g2
(g3
(S'S5'
I0
I1
tRp4246
(I3
S'|'
NNNI5
I1
I0
tbS'funda'
tRp4247
I3224
tp4248
a(g2
(g3
(S'S5'
I0
I1
tRp4249
(I3
S'|'
NNNI5
I1
I0
tbS'pledg'
tRp4250
I3220
tp4251
a(g2
(g3
(S'S5'
I0
I1
tRp4252
(I3
S'|'
NNNI5
I1
I0
tbS'circl'
tRp4253
I3219
tp4254
a(g2
(g3
(S'S4'
I0
I1
tRp4255
(I3
S'|'
NNNI4
I1
I0
tbS'suit'
tRp4256
I3218
tp4257
a(g2
(g3
(S'S4'
I0
I1
tRp4258
(I3
S'|'
NNNI4
I1
I0
tbS'chas'
tRp4259
I3216
tp4260
a(g2
(g3
(S'S6'
I0
I1
tRp4261
(I3
S'|'
NNNI6
I1
I0
tbS'madrid'
tRp4262
I3212
tp4263
a(g2
(g3
(S'S7'
I0
I1
tRp4264
(I3
S'|'
NNNI7
I1
I0
tbS'softwar'
tRp4265
I3206
tp4266
a(g2
(g3
(S'S6'
I0
I1
tRp4267
(I3
S'|'
NNNI6
I1
I0
tbS'korean'
tRp4268
I3201
tp4269
a(g2
(g3
(S'S3'
I0
I1
tRp4270
(I3
S'|'
NNNI3
I1
I0
tbS'ipe'
tRp4271
I3199
tp4272
a(g2
(g3
(S'S4'
I0
I1
tRp4273
(I3
S'|'
NNNI4
I1
I0
tbS'drag'
tRp4274
I3199
tp4275
a(g2
(g3
(S'S5'
I0
I1
tRp4276
(I3
S'|'
NNNI5
I1
I0
tbS'milan'
tRp4277
I3197
tp4278
a(g2
(g3
(S'S4'
I0
I1
tRp4279
(I3
S'|'
NNNI4
I1
I0
tbS'shut'
tRp4280
I3195
tp4281
a(g2
(g3
(S'S7'
I0
I1
tRp4282
(I3
S'|'
NNNI7
I1
I0
tbS'contain'
tRp4283
I3192
tp4284
a(g2
(g3
(S'S3'
I0
I1
tRp4285
(I3
S'|'
NNNI3
I1
I0
tbS'van'
tRp4286
I3191
tp4287
a(g2
(g3
(S'S5'
I0
I1
tRp4288
(I3
S'|'
NNNI5
I1
I0
tbS'digit'
tRp4289
I3188
tp4290
a(g2
(g3
(S'S3'
I0
I1
tRp4291
(I3
S'|'
NNNI3
I1
I0
tbS'jet'
tRp4292
I3187
tp4293
a(g2
(g3
(S'S4'
I0
I1
tRp4294
(I3
S'|'
NNNI4
I1
I0
tbS'wood'
tRp4295
I3184
tp4296
a(g2
(g3
(S'S4'
I0
I1
tRp4297
(I3
S'|'
NNNI4
I1
I0
tbS'foot'
tRp4298
I3183
tp4299
a(g2
(g3
(S'S6'
I0
I1
tRp4300
(I3
S'|'
NNNI6
I1
I0
tbS'failur'
tRp4301
I3182
tp4302
a(g2
(g3
(S'S4'
I0
I1
tRp4303
(I3
S'|'
NNNI4
I1
I0
tbS'thom'
tRp4304
I3177
tp4305
a(g2
(g3
(S'S5'
I0
I1
tRp4306
(I3
S'|'
NNNI5
I1
I0
tbS'check'
tRp4307
I3176
tp4308
a(g2
(g3
(S'S4'
I0
I1
tRp4309
(I3
S'|'
NNNI4
I1
I0
tbS'belg'
tRp4310
I3176
tp4311
a(g2
(g3
(S'S6'
I0
I1
tRp4312
(I3
S'|'
NNNI6
I1
I0
tbS'search'
tRp4313
I3174
tp4314
a(g2
(g3
(S'S4'
I0
I1
tRp4315
(I3
S'|'
NNNI4
I1
I0
tbS'word'
tRp4316
I3173
tp4317
a(g2
(g3
(S'S3'
I0
I1
tRp4318
(I3
S'|'
NNNI3
I1
I0
tbS'ill'
tRp4319
I3156
tp4320
a(g2
(g3
(S'S2'
I0
I1
tRp4321
(I3
S'|'
NNNI2
I1
I0
tbS'na'
tRp4322
I3147
tp4323
a(g2
(g3
(S'S7'
I0
I1
tRp4324
(I3
S'|'
NNNI7
I1
I0
tbS'channel'
tRp4325
I3138
tp4326
a(g2
(g3
(S'S4'
I0
I1
tRp4327
(I3
S'|'
NNNI4
I1
I0
tbS'hunt'
tRp4328
I3137
tp4329
a(g2
(g3
(S'S5'
I0
I1
tRp4330
(I3
S'|'
NNNI5
I1
I0
tbS'enjoy'
tRp4331
I3137
tp4332
a(g2
(g3
(S'S5'
I0
I1
tRp4333
(I3
S'|'
NNNI5
I1
I0
tbS'estat'
tRp4334
I3135
tp4335
a(g2
(g3
(S'S3'
I0
I1
tRp4336
(I3
S'|'
NNNI3
I1
I0
tbS'sun'
tRp4337
I3132
tp4338
a(g2
(g3
(S'S4'
I0
I1
tRp4339
(I3
S'|'
NNNI4
I1
I0
tbS'auto'
tRp4340
I3132
tp4341
a(g2
(g3
(S'S5'
I0
I1
tRp4342
(I3
S'|'
NNNI5
I1
I0
tbS'newly'
tRp4343
I3131
tp4344
a(g2
(g3
(S'S5'
I0
I1
tRp4345
(I3
S'|'
NNNI5
I1
I0
tbS'trial'
tRp4346
I3130
tp4347
a(g2
(g3
(S'S5'
I0
I1
tRp4348
(I3
S'|'
NNNI5
I1
I0
tbS'goldm'
tRp4349
I3116
tp4350
a(g2
(g3
(S'S7'
I0
I1
tRp4351
(I3
S'|'
NNNI7
I1
I0
tbS'succeed'
tRp4352
I3114
tp4353
a(g2
(g3
(S'S4'
I0
I1
tRp4354
(I3
S'|'
NNNI4
I1
I0
tbS'phon'
tRp4355
I3114
tp4356
a(g2
(g3
(S'S10'
I0
I1
tRp4357
(I3
S'|'
NNNI10
I1
I0
tbS'understand'
tRp4358
I3106
tp4359
a(g2
(g3
(S'S3'
I0
I1
tRp4360
(I3
S'|'
NNNI3
I1
I0
tbS'nyc'
tRp4361
I3102
tp4362
a(g2
(g3
(S'S5'
I0
I1
tRp4363
(I3
S'|'
NNNI5
I1
I0
tbS'cusip'
tRp4364
I3099
tp4365
a(g2
(g3
(S'S6'
I0
I1
tRp4366
(I3
S'|'
NNNI6
I1
I0
tbS'alumin'
tRp4367
I3094
tp4368
a(g2
(g3
(S'S4'
I0
I1
tRp4369
(I3
S'|'
NNNI4
I1
I0
tbS'hang'
tRp4370
I3092
tp4371
a(g2
(g3
(S'S6'
I0
I1
tRp4372
(I3
S'|'
NNNI6
I1
I0
tbS'justic'
tRp4373
I3091
tp4374
a(g2
(g3
(S'S4'
I0
I1
tRp4375
(I3
S'|'
NNNI4
I1
I0
tbS'blow'
tRp4376
I3084
tp4377
a(g2
(g3
(S'S10'
I0
I1
tRp4378
(I3
S'|'
NNNI10
I1
I0
tbS'controvers'
tRp4379
I3073
tp4380
a(g2
(g3
(S'S9'
I0
I1
tRp4381
(I3
S'|'
NNNI9
I1
I0
tbS'headquart'
tRp4382
I3068
tp4383
a(g2
(g3
(S'S5'
I0
I1
tRp4384
(I3
S'|'
NNNI5
I1
I0
tbS'sever'
tRp4385
I3058
tp4386
a(g2
(g3
(S'S4'
I0
I1
tRp4387
(I3
S'|'
NNNI4
I1
I0
tbS'hear'
tRp4388
I3056
tp4389
a(g2
(g3
(S'S5'
I0
I1
tRp4390
(I3
S'|'
NNNI5
I1
I0
tbS'forex'
tRp4391
I3055
tp4392
a(g2
(g3
(S'S8'
I0
I1
tRp4393
(I3
S'|'
NNNI8
I1
I0
tbS'complain'
tRp4394
I3053
tp4395
a(g2
(g3
(S'S7'
I0
I1
tRp4396
(I3
S'|'
NNNI7
I1
I0
tbS'convers'
tRp4397
I3048
tp4398
a(g2
(g3
(S'S7'
I0
I1
tRp4399
(I3
S'|'
NNNI7
I1
I0
tbS'derivat'
tRp4400
I3045
tp4401
a(g2
(g3
(S'S5'
I0
I1
tRp4402
(I3
S'|'
NNNI5
I1
I0
tbS'brown'
tRp4403
I3044
tp4404
a(g2
(g3
(S'S5'
I0
I1
tRp4405
(I3
S'|'
NNNI5
I1
I0
tbS'traff'
tRp4406
I3041
tp4407
a(g2
(g3
(S'S4'
I0
I1
tRp4408
(I3
S'|'
NNNI4
I1
I0
tbS'jose'
tRp4409
I3039
tp4410
a(g2
(g3
(S'S5'
I0
I1
tRp4411
(I3
S'|'
NNNI5
I1
I0
tbS'domin'
tRp4412
I3037
tp4413
a(g2
(g3
(S'S8'
I0
I1
tRp4414
(I3
S'|'
NNNI8
I1
I0
tbS'signific'
tRp4415
I3036
tp4416
a(g2
(g3
(S'S5'
I0
I1
tRp4417
(I3
S'|'
NNNI5
I1
I0
tbS'shown'
tRp4418
I3027
tp4419
a(g2
(g3
(S'S5'
I0
I1
tRp4420
(I3
S'|'
NNNI5
I1
I0
tbS'rough'
tRp4421
I3026
tp4422
a(g2
(g3
(S'S6'
I0
I1
tRp4423
(I3
S'|'
NNNI6
I1
I0
tbS'northw'
tRp4424
I3023
tp4425
a(g2
(g3
(S'S4'
I0
I1
tRp4426
(I3
S'|'
NNNI4
I1
I0
tbS'seed'
tRp4427
I3013
tp4428
a(g2
(g3
(S'S6'
I0
I1
tRp4429
(I3
S'|'
NNNI6
I1
I0
tbS'penalt'
tRp4430
I3010
tp4431
a(g2
(g3
(S'S2'
I0
I1
tRp4432
(I3
S'|'
NNNI2
I1
I0
tbS'la'
tRp4433
I3010
tp4434
a(g2
(g3
(S'S8'
I0
I1
tRp4435
(I3
S'|'
NNNI8
I1
I0
tbS'conflict'
tRp4436
I3009
tp4437
a(g2
(g3
(S'S3'
I0
I1
tRp4438
(I3
S'|'
NNNI3
I1
I0
tbS'abn'
tRp4439
I3009
tp4440
a(g2
(g3
(S'S6'
I0
I1
tRp4441
(I3
S'|'
NNNI6
I1
I0
tbS'actual'
tRp4442
I3005
tp4443
a(g2
(g3
(S'S6'
I0
I1
tRp4444
(I3
S'|'
NNNI6
I1
I0
tbS'nikkei'
tRp4445
I3004
tp4446
a(g2
(g3
(S'S7'
I0
I1
tRp4447
(I3
S'|'
NNNI7
I1
I0
tbS'depress'
tRp4448
I3001
tp4449
a(g2
(g3
(S'S7'
I0
I1
tRp4450
(I3
S'|'
NNNI7
I1
I0
tbS'christm'
tRp4451
I3001
tp4452
a(g2
(g3
(S'S4'
I0
I1
tRp4453
(I3
S'|'
NNNI4
I1
I0
tbS'alan'
tRp4454
I2997
tp4455
a(g2
(g3
(S'S7'
I0
I1
tRp4456
(I3
S'|'
NNNI7
I1
I0
tbS'prudent'
tRp4457
I2990
tp4458
a(g2
(g3
(S'S3'
I0
I1
tRp4459
(I3
S'|'
NNNI3
I1
I0
tbS'jim'
tRp4460
I2989
tp4461
a(g2
(g3
(S'S3'
I0
I1
tRp4462
(I3
S'|'
NNNI3
I1
I0
tbS'edt'
tRp4463
I2989
tp4464
a(g2
(g3
(S'S6'
I0
I1
tRp4465
(I3
S'|'
NNNI6
I1
I0
tbS'cancel'
tRp4466
I2989
tp4467
a(g2
(g3
(S'S5'
I0
I1
tRp4468
(I3
S'|'
NNNI5
I1
I0
tbS'croat'
tRp4469
I2988
tp4470
a(g2
(g3
(S'S5'
I0
I1
tRp4471
(I3
S'|'
NNNI5
I1
I0
tbS'pragu'
tRp4472
I2985
tp4473
a(g2
(g3
(S'S6'
I0
I1
tRp4474
(I3
S'|'
NNNI6
I1
I0
tbS'victim'
tRp4475
I2984
tp4476
a(g2
(g3
(S'S5'
I0
I1
tRp4477
(I3
S'|'
NNNI5
I1
I0
tbS'nomin'
tRp4478
I2983
tp4479
a(g2
(g3
(S'S7'
I0
I1
tRp4480
(I3
S'|'
NNNI7
I1
I0
tbS'exercis'
tRp4481
I2983
tp4482
a(g2
(g3
(S'S6'
I0
I1
tRp4483
(I3
S'|'
NNNI6
I1
I0
tbS'philip'
tRp4484
I2981
tp4485
a(g2
(g3
(S'S7'
I0
I1
tRp4486
(I3
S'|'
NNNI7
I1
I0
tbS'ireland'
tRp4487
I2979
tp4488
a(g2
(g3
(S'S5'
I0
I1
tRp4489
(I3
S'|'
NNNI5
I1
I0
tbS'doesn'
tRp4490
I2979
tp4491
a(g2
(g3
(S'S6'
I0
I1
tRp4492
(I3
S'|'
NNNI6
I1
I0
tbS'dramat'
tRp4493
I2977
tp4494
a(g2
(g3
(S'S7'
I0
I1
tRp4495
(I3
S'|'
NNNI7
I1
I0
tbS'houston'
tRp4496
I2975
tp4497
a(g2
(g3
(S'S6'
I0
I1
tRp4498
(I3
S'|'
NNNI6
I1
I0
tbS'outcom'
tRp4499
I2974
tp4500
a(g2
(g3
(S'S4'
I0
I1
tRp4501
(I3
S'|'
NNNI4
I1
I0
tbS'king'
tRp4502
I2971
tp4503
a(g2
(g3
(S'S6'
I0
I1
tRp4504
(I3
S'|'
NNNI6
I1
I0
tbS'permit'
tRp4505
I2969
tp4506
a(g2
(g3
(S'S6'
I0
I1
tRp4507
(I3
S'|'
NNNI6
I1
I0
tbS'contin'
tRp4508
I2965
tp4509
a(g2
(g3
(S'S8'
I0
I1
tRp4510
(I3
S'|'
NNNI8
I1
I0
tbS'shanghai'
tRp4511
I2963
tp4512
a(g2
(g3
(S'S4'
I0
I1
tRp4513
(I3
S'|'
NNNI4
I1
I0
tbS'lehm'
tRp4514
I2963
tp4515
a(g2
(g3
(S'S5'
I0
I1
tRp4516
(I3
S'|'
NNNI5
I1
I0
tbS'entir'
tRp4517
I2958
tp4518
a(g2
(g3
(S'S2'
I0
I1
tRp4519
(I3
S'|'
NNNI2
I1
I0
tbS'le'
tRp4520
I2952
tp4521
a(g2
(g3
(S'S6'
I0
I1
tRp4522
(I3
S'|'
NNNI6
I1
I0
tbS'coffee'
tRp4523
I2949
tp4524
a(g2
(g3
(S'S4'
I0
I1
tRp4525
(I3
S'|'
NNNI4
I1
I0
tbS'calm'
tRp4526
I2949
tp4527
a(g2
(g3
(S'S6'
I0
I1
tRp4528
(I3
S'|'
NNNI6
I1
I0
tbS'restor'
tRp4529
I2947
tp4530
a(g2
(g3
(S'S4'
I0
I1
tRp4531
(I3
S'|'
NNNI4
I1
I0
tbS'govt'
tRp4532
I2947
tp4533
a(g2
(g3
(S'S5'
I0
I1
tRp4534
(I3
S'|'
NNNI5
I1
I0
tbS'bound'
tRp4535
I2943
tp4536
a(g2
(g3
(S'S8'
I0
I1
tRp4537
(I3
S'|'
NNNI8
I1
I0
tbS'diplomat'
tRp4538
I2935
tp4539
a(g2
(g3
(S'S4'
I0
I1
tRp4540
(I3
S'|'
NNNI4
I1
I0
tbS'slug'
tRp4541
I2932
tp4542
a(g2
(g3
(S'S5'
I0
I1
tRp4543
(I3
S'|'
NNNI5
I1
I0
tbS'sixth'
tRp4544
I2931
tp4545
a(g2
(g3
(S'S5'
I0
I1
tRp4546
(I3
S'|'
NNNI5
I1
I0
tbS'chain'
tRp4547
I2928
tp4548
a(g2
(g3
(S'S6'
I0
I1
tRp4549
(I3
S'|'
NNNI6
I1
I0
tbS'soviet'
tRp4550
I2926
tp4551
a(g2
(g3
(S'S6'
I0
I1
tRp4552
(I3
S'|'
NNNI6
I1
I0
tbS'christ'
tRp4553
I2925
tp4554
a(g2
(g3
(S'S4'
I0
I1
tRp4555
(I3
S'|'
NNNI4
I1
I0
tbS'abil'
tRp4556
I2925
tp4557
a(g2
(g3
(S'S4'
I0
I1
tRp4558
(I3
S'|'
NNNI4
I1
I0
tbS'saud'
tRp4559
I2924
tp4560
a(g2
(g3
(S'S4'
I0
I1
tRp4561
(I3
S'|'
NNNI4
I1
I0
tbS'mult'
tRp4562
I2921
tp4563
a(g2
(g3
(S'S6'
I0
I1
tRp4564
(I3
S'|'
NNNI6
I1
I0
tbS'obtain'
tRp4565
I2919
tp4566
a(g2
(g3
(S'S5'
I0
I1
tRp4567
(I3
S'|'
NNNI5
I1
I0
tbS'enabl'
tRp4568
I2918
tp4569
a(g2
(g3
(S'S4'
I0
I1
tRp4570
(I3
S'|'
NNNI4
I1
I0
tbS'amro'
tRp4571
I2918
tp4572
a(g2
(g3
(S'S3'
I0
I1
tRp4573
(I3
S'|'
NNNI3
I1
I0
tbS'tom'
tRp4574
I2915
tp4575
a(g2
(g3
(S'S5'
I0
I1
tRp4576
(I3
S'|'
NNNI5
I1
I0
tbS'model'
tRp4577
I2914
tp4578
a(g2
(g3
(S'S7'
I0
I1
tRp4579
(I3
S'|'
NNNI7
I1
I0
tbS'tension'
tRp4580
I2910
tp4581
a(g2
(g3
(S'S8'
I0
I1
tRp4582
(I3
S'|'
NNNI8
I1
I0
tbS'internet'
tRp4583
I2910
tp4584
a(g2
(g3
(S'S4'
I0
I1
tRp4585
(I3
S'|'
NNNI4
I1
I0
tbS'mike'
tRp4586
I2907
tp4587
a(g2
(g3
(S'S6'
I0
I1
tRp4588
(I3
S'|'
NNNI6
I1
I0
tbS'gather'
tRp4589
I2906
tp4590
a(g2
(g3
(S'S4'
I0
I1
tRp4591
(I3
S'|'
NNNI4
I1
I0
tbS'duty'
tRp4592
I2904
tp4593
a(g2
(g3
(S'S4'
I0
I1
tRp4594
(I3
S'|'
NNNI4
I1
I0
tbS'seiz'
tRp4595
I2903
tp4596
a(g2
(g3
(S'S4'
I0
I1
tRp4597
(I3
S'|'
NNNI4
I1
I0
tbS'cool'
tRp4598
I2903
tp4599
a(g2
(g3
(S'S7'
I0
I1
tRp4600
(I3
S'|'
NNNI7
I1
I0
tbS'slaught'
tRp4601
I2902
tp4602
a(g2
(g3
(S'S4'
I0
I1
tRp4603
(I3
S'|'
NNNI4
I1
I0
tbS'mind'
tRp4604
I2898
tp4605
a(g2
(g3
(S'S5'
I0
I1
tRp4606
(I3
S'|'
NNNI5
I1
I0
tbS'lower'
tRp4607
I2893
tp4608
a(g2
(g3
(S'S5'
I0
I1
tRp4609
(I3
S'|'
NNNI5
I1
I0
tbS'denom'
tRp4610
I2886
tp4611
a(g2
(g3
(S'S4'
I0
I1
tRp4612
(I3
S'|'
NNNI4
I1
I0
tbS'flag'
tRp4613
I2885
tp4614
a(g2
(g3
(S'S7'
I0
I1
tRp4615
(I3
S'|'
NNNI7
I1
I0
tbS'downsid'
tRp4616
I2882
tp4617
a(g2
(g3
(S'S4'
I0
I1
tRp4618
(I3
S'|'
NNNI4
I1
I0
tbS'cabl'
tRp4619
I2879
tp4620
a(g2
(g3
(S'S6'
I0
I1
tRp4621
(I3
S'|'
NNNI6
I1
I0
tbS'cement'
tRp4622
I2875
tp4623
a(g2
(g3
(S'S4'
I0
I1
tRp4624
(I3
S'|'
NNNI4
I1
I0
tbS'spac'
tRp4625
I2874
tp4626
a(g2
(g3
(S'S4'
I0
I1
tRp4627
(I3
S'|'
NNNI4
I1
I0
tbS'dean'
tRp4628
I2874
tp4629
a(g2
(g3
(S'S4'
I0
I1
tRp4630
(I3
S'|'
NNNI4
I1
I0
tbS'sach'
tRp4631
I2872
tp4632
a(g2
(g3
(S'S5'
I0
I1
tRp4633
(I3
S'|'
NNNI5
I1
I0
tbS'assur'
tRp4634
I2872
tp4635
a(g2
(g3
(S'S5'
I0
I1
tRp4636
(I3
S'|'
NNNI5
I1
I0
tbS'storm'
tRp4637
I2870
tp4638
a(g2
(g3
(S'S4'
I0
I1
tRp4639
(I3
S'|'
NNNI4
I1
I0
tbS'fill'
tRp4640
I2869
tp4641
a(g2
(g3
(S'S6'
I0
I1
tRp4642
(I3
S'|'
NNNI6
I1
I0
tbS'status'
tRp4643
I2860
tp4644
a(g2
(g3
(S'S7'
I0
I1
tRp4645
(I3
S'|'
NNNI7
I1
I0
tbS'offshor'
tRp4646
I2860
tp4647
a(g2
(g3
(S'S7'
I0
I1
tRp4648
(I3
S'|'
NNNI7
I1
I0
tbS'gradual'
tRp4649
I2858
tp4650
a(g2
(g3
(S'S7'
I0
I1
tRp4651
(I3
S'|'
NNNI7
I1
I0
tbS'initiat'
tRp4652
I2856
tp4653
a(g2
(g3
(S'S5'
I0
I1
tRp4654
(I3
S'|'
NNNI5
I1
I0
tbS'story'
tRp4655
I2855
tp4656
a(g2
(g3
(S'S7'
I0
I1
tRp4657
(I3
S'|'
NNNI7
I1
I0
tbS'impress'
tRp4658
I2844
tp4659
a(g2
(g3
(S'S3'
I0
I1
tRp4660
(I3
S'|'
NNNI3
I1
I0
tbS'fan'
tRp4661
I2844
tp4662
a(g2
(g3
(S'S7'
I0
I1
tRp4663
(I3
S'|'
NNNI7
I1
I0
tbS'mission'
tRp4664
I2843
tp4665
a(g2
(g3
(S'S5'
I0
I1
tRp4666
(I3
S'|'
NNNI5
I1
I0
tbS'meant'
tRp4667
I2840
tp4668
a(g2
(g3
(S'S7'
I0
I1
tRp4669
(I3
S'|'
NNNI7
I1
I0
tbS'comfort'
tRp4670
I2837
tp4671
a(g2
(g3
(S'S6'
I0
I1
tRp4672
(I3
S'|'
NNNI6
I1
I0
tbS'observ'
tRp4673
I2833
tp4674
a(g2
(g3
(S'S3'
I0
I1
tRp4675
(I3
S'|'
NNNI3
I1
I0
tbS'hot'
tRp4676
I2833
tp4677
a(g2
(g3
(S'S7'
I0
I1
tRp4678
(I3
S'|'
NNNI7
I1
I0
tbS'caution'
tRp4679
I2832
tp4680
a(g2
(g3
(S'S4'
I0
I1
tRp4681
(I3
S'|'
NNNI4
I1
I0
tbS'cast'
tRp4682
I2827
tp4683
a(g2
(g3
(S'S5'
I0
I1
tRp4684
(I3
S'|'
NNNI5
I1
I0
tbS'senat'
tRp4685
I2824
tp4686
a(g2
(g3
(S'S3'
I0
I1
tRp4687
(I3
S'|'
NNNI3
I1
I0
tbS'boe'
tRp4688
I2823
tp4689
a(g2
(g3
(S'S4'
I0
I1
tRp4690
(I3
S'|'
NNNI4
I1
I0
tbS'yuan'
tRp4691
I2822
tp4692
a(g2
(g3
(S'S5'
I0
I1
tRp4693
(I3
S'|'
NNNI5
I1
I0
tbS'happy'
tRp4694
I2818
tp4695
a(g2
(g3
(S'S6'
I0
I1
tRp4696
(I3
S'|'
NNNI6
I1
I0
tbS'insist'
tRp4697
I2816
tp4698
a(g2
(g3
(S'S2'
I0
I1
tRp4699
(I3
S'|'
NNNI2
I1
I0
tbS'sp'
tRp4700
I2815
tp4701
a(g2
(g3
(S'S5'
I0
I1
tRp4702
(I3
S'|'
NNNI5
I1
I0
tbS'budap'
tRp4703
I2815
tp4704
a(g2
(g3
(S'S4'
I0
I1
tRp4705
(I3
S'|'
NNNI4
I1
I0
tbS'phas'
tRp4706
I2813
tp4707
a(g2
(g3
(S'S3'
I0
I1
tRp4708
(I3
S'|'
NNNI3
I1
I0
tbS'bag'
tRp4709
I2813
tp4710
a(g2
(g3
(S'S6'
I0
I1
tRp4711
(I3
S'|'
NNNI6
I1
I0
tbS'inject'
tRp4712
I2810
tp4713
a(g2
(g3
(S'S4'
I0
I1
tRp4714
(I3
S'|'
NNNI4
I1
I0
tbS'kick'
tRp4715
I2807
tp4716
a(g2
(g3
(S'S6'
I0
I1
tRp4717
(I3
S'|'
NNNI6
I1
I0
tbS'temper'
tRp4718
I2806
tp4719
a(g2
(g3
(S'S9'
I0
I1
tRp4720
(I3
S'|'
NNNI9
I1
I0
tbS'southeast'
tRp4721
I2806
tp4722
a(g2
(g3
(S'S5'
I0
I1
tRp4723
(I3
S'|'
NNNI5
I1
I0
tbS'invit'
tRp4724
I2798
tp4725
a(g2
(g3
(S'S9'
I0
I1
tRp4726
(I3
S'|'
NNNI9
I1
I0
tbS'northeast'
tRp4727
I2796
tp4728
a(g2
(g3
(S'S3'
I0
I1
tRp4729
(I3
S'|'
NNNI3
I1
I0
tbS'mth'
tRp4730
I2795
tp4731
a(g2
(g3
(S'S3'
I0
I1
tRp4732
(I3
S'|'
NNNI3
I1
I0
tbS'raw'
tRp4733
I2794
tp4734
a(g2
(g3
(S'S3'
I0
I1
tRp4735
(I3
S'|'
NNNI3
I1
I0
tbS'ran'
tRp4736
I2794
tp4737
a(g2
(g3
(S'S3'
I0
I1
tRp4738
(I3
S'|'
NNNI3
I1
I0
tbS'cpn'
tRp4739
I2789
tp4740
a(g2
(g3
(S'S4'
I0
I1
tRp4741
(I3
S'|'
NNNI4
I1
I0
tbS'turk'
tRp4742
I2785
tp4743
a(g2
(g3
(S'S5'
I0
I1
tRp4744
(I3
S'|'
NNNI5
I1
I0
tbS'crash'
tRp4745
I2785
tp4746
a(g2
(g3
(S'S7'
I0
I1
tRp4747
(I3
S'|'
NNNI7
I1
I0
tbS'automat'
tRp4748
I2785
tp4749
a(g2
(g3
(S'S3'
I0
I1
tRp4750
(I3
S'|'
NNNI3
I1
I0
tbS'ing'
tRp4751
I2783
tp4752
a(g2
(g3
(S'S5'
I0
I1
tRp4753
(I3
S'|'
NNNI5
I1
I0
tbS'barry'
tRp4754
I2783
tp4755
a(g2
(g3
(S'S7'
I0
I1
tRp4756
(I3
S'|'
NNNI7
I1
I0
tbS'explain'
tRp4757
I2780
tp4758
a(g2
(g3
(S'S4'
I0
I1
tRp4759
(I3
S'|'
NNNI4
I1
I0
tbS'leas'
tRp4760
I2773
tp4761
a(g2
(g3
(S'S7'
I0
I1
tRp4762
(I3
S'|'
NNNI7
I1
I0
tbS'footbal'
tRp4763
I2772
tp4764
a(g2
(g3
(S'S6'
I0
I1
tRp4765
(I3
S'|'
NNNI6
I1
I0
tbS'edward'
tRp4766
I2772
tp4767
a(g2
(g3
(S'S3'
I0
I1
tRp4768
(I3
S'|'
NNNI3
I1
I0
tbS'use'
tRp4769
I2769
tp4770
a(g2
(g3
(S'S5'
I0
I1
tRp4771
(I3
S'|'
NNNI5
I1
I0
tbS'unabl'
tRp4772
I2765
tp4773
a(g2
(g3
(S'S6'
I0
I1
tRp4774
(I3
S'|'
NNNI6
I1
I0
tbS'editor'
tRp4775
I2762
tp4776
a(g2
(g3
(S'S5'
I0
I1
tRp4777
(I3
S'|'
NNNI5
I1
I0
tbS'draft'
tRp4778
I2758
tp4779
a(g2
(g3
(S'S3'
I0
I1
tRp4780
(I3
S'|'
NNNI3
I1
I0
tbS'upp'
tRp4781
I2756
tp4782
a(g2
(g3
(S'S7'
I0
I1
tRp4783
(I3
S'|'
NNNI7
I1
I0
tbS'federat'
tRp4784
I2753
tp4785
a(g2
(g3
(S'S8'
I0
I1
tRp4786
(I3
S'|'
NNNI8
I1
I0
tbS'demonstr'
tRp4787
I2753
tp4788
a(g2
(g3
(S'S6'
I0
I1
tRp4789
(I3
S'|'
NNNI6
I1
I0
tbS'robust'
tRp4790
I2752
tp4791
a(g2
(g3
(S'S6'
I0
I1
tRp4792
(I3
S'|'
NNNI6
I1
I0
tbS'tranch'
tRp4793
I2741
tp4794
a(g2
(g3
(S'S3'
I0
I1
tRp4795
(I3
S'|'
NNNI3
I1
I0
tbS'dry'
tRp4796
I2738
tp4797
a(g2
(g3
(S'S7'
I0
I1
tRp4798
(I3
S'|'
NNNI7
I1
I0
tbS'convinc'
tRp4799
I2737
tp4800
a(g2
(g3
(S'S6'
I0
I1
tRp4801
(I3
S'|'
NNNI6
I1
I0
tbS'cultur'
tRp4802
I2736
tp4803
a(g2
(g3
(S'S3'
I0
I1
tRp4804
(I3
S'|'
NNNI3
I1
I0
tbS'box'
tRp4805
I2724
tp4806
a(g2
(g3
(S'S3'
I0
I1
tRp4807
(I3
S'|'
NNNI3
I1
I0
tbS'sri'
tRp4808
I2717
tp4809
a(g2
(g3
(S'S6'
I0
I1
tRp4810
(I3
S'|'
NNNI6
I1
I0
tbS'syndic'
tRp4811
I2715
tp4812
a(g2
(g3
(S'S2'
I0
I1
tRp4813
(I3
S'|'
NNNI2
I1
I0
tbS'ny'
tRp4814
I2714
tp4815
a(g2
(g3
(S'S6'
I0
I1
tRp4816
(I3
S'|'
NNNI6
I1
I0
tbS'termin'
tRp4817
I2711
tp4818
a(g2
(g3
(S'S6'
I0
I1
tRp4819
(I3
S'|'
NNNI6
I1
I0
tbS'celebr'
tRp4820
I2711
tp4821
a(g2
(g3
(S'S7'
I0
I1
tRp4822
(I3
S'|'
NNNI7
I1
I0
tbS'allocat'
tRp4823
I2711
tp4824
a(g2
(g3
(S'S4'
I0
I1
tRp4825
(I3
S'|'
NNNI4
I1
I0
tbS'bori'
tRp4826
I2710
tp4827
a(g2
(g3
(S'S5'
I0
I1
tRp4828
(I3
S'|'
NNNI5
I1
I0
tbS'oppon'
tRp4829
I2709
tp4830
a(g2
(g3
(S'S7'
I0
I1
tRp4831
(I3
S'|'
NNNI7
I1
I0
tbS'hundred'
tRp4832
I2707
tp4833
a(g2
(g3
(S'S7'
I0
I1
tRp4834
(I3
S'|'
NNNI7
I1
I0
tbS'postpon'
tRp4835
I2705
tp4836
a(g2
(g3
(S'S6'
I0
I1
tRp4837
(I3
S'|'
NNNI6
I1
I0
tbS'advert'
tRp4838
I2698
tp4839
a(g2
(g3
(S'S2'
I0
I1
tRp4840
(I3
S'|'
NNNI2
I1
I0
tbS'q1'
tRp4841
I2697
tp4842
a(g2
(g3
(S'S4'
I0
I1
tRp4843
(I3
S'|'
NNNI4
I1
I0
tbS'mood'
tRp4844
I2697
tp4845
a(g2
(g3
(S'S7'
I0
I1
tRp4846
(I3
S'|'
NNNI7
I1
I0
tbS'mainten'
tRp4847
I2695
tp4848
a(g2
(g3
(S'S3'
I0
I1
tRp4849
(I3
S'|'
NNNI3
I1
I0
tbS'dtd'
tRp4850
I2691
tp4851
a(g2
(g3
(S'S4'
I0
I1
tRp4852
(I3
S'|'
NNNI4
I1
I0
tbS'mess'
tRp4853
I2688
tp4854
a(g2
(g3
(S'S5'
I0
I1
tRp4855
(I3
S'|'
NNNI5
I1
I0
tbS'bueno'
tRp4856
I2687
tp4857
a(g2
(g3
(S'S5'
I0
I1
tRp4858
(I3
S'|'
NNNI5
I1
I0
tbS'zloty'
tRp4859
I2684
tp4860
a(g2
(g3
(S'S5'
I0
I1
tRp4861
(I3
S'|'
NNNI5
I1
I0
tbS'scrap'
tRp4862
I2683
tp4863
a(g2
(g3
(S'S6'
I0
I1
tRp4864
(I3
S'|'
NNNI6
I1
I0
tbS'daniel'
tRp4865
I2676
tp4866
a(g2
(g3
(S'S6'
I0
I1
tRp4867
(I3
S'|'
NNNI6
I1
I0
tbS'destin'
tRp4868
I2674
tp4869
a(g2
(g3
(S'S2'
I0
I1
tRp4870
(I3
S'|'
NNNI2
I1
I0
tbS'sr'
tRp4871
I2670
tp4872
a(g2
(g3
(S'S3'
I0
I1
tRp4873
(I3
S'|'
NNNI3
I1
I0
tbS'sit'
tRp4874
I2669
tp4875
a(g2
(g3
(S'S7'
I0
I1
tRp4876
(I3
S'|'
NNNI7
I1
I0
tbS'consort'
tRp4877
I2665
tp4878
a(g2
(g3
(S'S7'
I0
I1
tRp4879
(I3
S'|'
NNNI7
I1
I0
tbS'helsink'
tRp4880
I2654
tp4881
a(g2
(g3
(S'S4'
I0
I1
tRp4882
(I3
S'|'
NNNI4
I1
I0
tbS'page'
tRp4883
I2653
tp4884
a(g2
(g3
(S'S5'
I0
I1
tRp4885
(I3
S'|'
NNNI5
I1
I0
tbS'debut'
tRp4886
I2651
tp4887
a(g2
(g3
(S'S5'
I0
I1
tRp4888
(I3
S'|'
NNNI5
I1
I0
tbS'blood'
tRp4889
I2648
tp4890
a(g2
(g3
(S'S3'
I0
I1
tRp4891
(I3
S'|'
NNNI3
I1
I0
tbS'lme'
tRp4892
I2647
tp4893
a(g2
(g3
(S'S6'
I0
I1
tRp4894
(I3
S'|'
NNNI6
I1
I0
tbS'branch'
tRp4895
I2645
tp4896
a(g2
(g3
(S'S4'
I0
I1
tRp4897
(I3
S'|'
NNNI4
I1
I0
tbS'lank'
tRp4898
I2644
tp4899
a(g2
(g3
(S'S10'
I0
I1
tRp4900
(I3
S'|'
NNNI10
I1
I0
tbS'bundesbank'
tRp4901
I2637
tp4902
a(g2
(g3
(S'S4'
I0
I1
tRp4903
(I3
S'|'
NNNI4
I1
I0
tbS'safe'
tRp4904
I2630
tp4905
a(g2
(g3
(S'S6'
I0
I1
tRp4906
(I3
S'|'
NNNI6
I1
I0
tbS'interv'
tRp4907
I2630
tp4908
a(g2
(g3
(S'S6'
I0
I1
tRp4909
(I3
S'|'
NNNI6
I1
I0
tbS'zurich'
tRp4910
I2625
tp4911
a(g2
(g3
(S'S4'
I0
I1
tRp4912
(I3
S'|'
NNNI4
I1
I0
tbS'midw'
tRp4913
I2624
tp4914
a(g2
(g3
(S'S13'
I0
I1
tRp4915
(I3
S'|'
NNNI13
I1
I0
tbS'infrastructur'
tRp4916
I2624
tp4917
a(g2
(g3
(S'S3'
I0
I1
tRp4918
(I3
S'|'
NNNI3
I1
I0
tbS'lee'
tRp4919
I2622
tp4920
a(g2
(g3
(S'S4'
I0
I1
tRp4921
(I3
S'|'
NNNI4
I1
I0
tbS'bund'
tRp4922
I2621
tp4923
a(g2
(g3
(S'S2'
I0
I1
tRp4924
(I3
S'|'
NNNI2
I1
I0
tbS'nz'
tRp4925
I2620
tp4926
a(g2
(g3
(S'S6'
I0
I1
tRp4927
(I3
S'|'
NNNI6
I1
I0
tbS'caught'
tRp4928
I2618
tp4929
a(g2
(g3
(S'S4'
I0
I1
tRp4930
(I3
S'|'
NNNI4
I1
I0
tbS'prop'
tRp4931
I2615
tp4932
a(g2
(g3
(S'S4'
I0
I1
tRp4933
(I3
S'|'
NNNI4
I1
I0
tbS'cycl'
tRp4934
I2614
tp4935
a(g2
(g3
(S'S6'
I0
I1
tRp4936
(I3
S'|'
NNNI6
I1
I0
tbS'surviv'
tRp4937
I2610
tp4938
a(g2
(g3
(S'S6'
I0
I1
tRp4939
(I3
S'|'
NNNI6
I1
I0
tbS'refund'
tRp4940
I2607
tp4941
a(g2
(g3
(S'S6'
I0
I1
tRp4942
(I3
S'|'
NNNI6
I1
I0
tbS'arbitr'
tRp4943
I2607
tp4944
a(g2
(g3
(S'S6'
I0
I1
tRp4945
(I3
S'|'
NNNI6
I1
I0
tbS'instal'
tRp4946
I2602
tp4947
a(g2
(g3
(S'S4'
I0
I1
tRp4948
(I3
S'|'
NNNI4
I1
I0
tbS'chil'
tRp4949
I2602
tp4950
a(g2
(g3
(S'S6'
I0
I1
tRp4951
(I3
S'|'
NNNI6
I1
I0
tbS'struck'
tRp4952
I2599
tp4953
a(g2
(g3
(S'S6'
I0
I1
tRp4954
(I3
S'|'
NNNI6
I1
I0
tbS'andraw'
tRp4955
I2599
tp4956
a(g2
(g3
(S'S5'
I0
I1
tRp4957
(I3
S'|'
NNNI5
I1
I0
tbS'accel'
tRp4958
I2597
tp4959
a(g2
(g3
(S'S4'
I0
I1
tRp4960
(I3
S'|'
NNNI4
I1
I0
tbS'gilt'
tRp4961
I2593
tp4962
a(g2
(g3
(S'S8'
I0
I1
tRp4963
(I3
S'|'
NNNI8
I1
I0
tbS'francisc'
tRp4964
I2593
tp4965
a(g2
(g3
(S'S5'
I0
I1
tRp4966
(I3
S'|'
NNNI5
I1
I0
tbS'amend'
tRp4967
I2591
tp4968
a(g2
(g3
(S'S4'
I0
I1
tRp4969
(I3
S'|'
NNNI4
I1
I0
tbS'tony'
tRp4970
I2590
tp4971
a(g2
(g3
(S'S3'
I0
I1
tRp4972
(I3
S'|'
NNNI3
I1
I0
tbS'und'
tRp4973
I2580
tp4974
a(g2
(g3
(S'S4'
I0
I1
tRp4975
(I3
S'|'
NNNI4
I1
I0
tbS'item'
tRp4976
I2579
tp4977
a(g2
(g3
(S'S5'
I0
I1
tRp4978
(I3
S'|'
NNNI5
I1
I0
tbS'safet'
tRp4979
I2578
tp4980
a(g2
(g3
(S'S5'
I0
I1
tRp4981
(I3
S'|'
NNNI5
I1
I0
tbS'mount'
tRp4982
I2578
tp4983
a(g2
(g3
(S'S7'
I0
I1
tRp4984
(I3
S'|'
NNNI7
I1
I0
tbS'harvest'
tRp4985
I2573
tp4986
a(g2
(g3
(S'S5'
I0
I1
tRp4987
(I3
S'|'
NNNI5
I1
I0
tbS'subdu'
tRp4988
I2571
tp4989
a(g2
(g3
(S'S4'
I0
I1
tRp4990
(I3
S'|'
NNNI4
I1
I0
tbS'prob'
tRp4991
I2564
tp4992
a(g2
(g3
(S'S4'
I0
I1
tRp4993
(I3
S'|'
NNNI4
I1
I0
tbS'oust'
tRp4994
I2564
tp4995
a(g2
(g3
(S'S4'
I0
I1
tRp4996
(I3
S'|'
NNNI4
I1
I0
tbS'inch'
tRp4997
I2561
tp4998
a(g2
(g3
(S'S4'
I0
I1
tRp4999
(I3
S'|'
NNNI4
I1
I0
tbS'wors'
tRp5000
I2546
tp5001
a(g2
(g3
(S'S3'
I0
I1
tRp5002
(I3
S'|'
NNNI3
I1
I0
tbS'fit'
tRp5003
I2545
tp5004
a(g2
(g3
(S'S7'
I0
I1
tRp5005
(I3
S'|'
NNNI7
I1
I0
tbS'deadlin'
tRp5006
I2545
tp5007
a(g2
(g3
(S'S3'
I0
I1
tRp5008
(I3
S'|'
NNNI3
I1
I0
tbS'rub'
tRp5009
I2541
tp5010
a(g2
(g3
(S'S2'
I0
I1
tRp5011
(I3
S'|'
NNNI2
I1
I0
tbS'tv'
tRp5012
I2536
tp5013
a(g2
(g3
(S'S4'
I0
I1
tRp5014
(I3
S'|'
NNNI4
I1
I0
tbS'keen'
tRp5015
I2531
tp5016
a(g2
(g3
(S'S4'
I0
I1
tRp5017
(I3
S'|'
NNNI4
I1
I0
tbS'jail'
tRp5018
I2525
tp5019
a(g2
(g3
(S'S6'
I0
I1
tRp5020
(I3
S'|'
NNNI6
I1
I0
tbS'stress'
tRp5021
I2524
tp5022
a(g2
(g3
(S'S7'
I0
I1
tRp5023
(I3
S'|'
NNNI7
I1
I0
tbS'crucial'
tRp5024
I2524
tp5025
a(g2
(g3
(S'S5'
I0
I1
tRp5026
(I3
S'|'
NNNI5
I1
I0
tbS'veter'
tRp5027
I2523
tp5028
a(g2
(g3
(S'S5'
I0
I1
tRp5029
(I3
S'|'
NNNI5
I1
I0
tbS'sound'
tRp5030
I2523
tp5031
a(g2
(g3
(S'S4'
I0
I1
tRp5032
(I3
S'|'
NNNI4
I1
I0
tbS'freq'
tRp5033
I2523
tp5034
a(g2
(g3
(S'S7'
I0
I1
tRp5035
(I3
S'|'
NNNI7
I1
I0
tbS'convert'
tRp5036
I2523
tp5037
a(g2
(g3
(S'S7'
I0
I1
tRp5038
(I3
S'|'
NNNI7
I1
I0
tbS'pension'
tRp5039
I2522
tp5040
a(g2
(g3
(S'S5'
I0
I1
tRp5041
(I3
S'|'
NNNI5
I1
I0
tbS'kenny'
tRp5042
I2520
tp5043
a(g2
(g3
(S'S4'
I0
I1
tRp5044
(I3
S'|'
NNNI4
I1
I0
tbS'hedg'
tRp5045
I2515
tp5046
a(g2
(g3
(S'S6'
I0
I1
tRp5047
(I3
S'|'
NNNI6
I1
I0
tbS'discov'
tRp5048
I2514
tp5049
a(g2
(g3
(S'S4'
I0
I1
tRp5050
(I3
S'|'
NNNI4
I1
I0
tbS'camp'
tRp5051
I2512
tp5052
a(g2
(g3
(S'S4'
I0
I1
tRp5053
(I3
S'|'
NNNI4
I1
I0
tbS'barg'
tRp5054
I2509
tp5055
a(g2
(g3
(S'S6'
I0
I1
tRp5056
(I3
S'|'
NNNI6
I1
I0
tbS'modern'
tRp5057
I2507
tp5058
a(g2
(g3
(S'S5'
I0
I1
tRp5059
(I3
S'|'
NNNI5
I1
I0
tbS'woman'
tRp5060
I2505
tp5061
a(g2
(g3
(S'S6'
I0
I1
tRp5062
(I3
S'|'
NNNI6
I1
I0
tbS'mandat'
tRp5063
I2505
tp5064
a(g2
(g3
(S'S4'
I0
I1
tRp5065
(I3
S'|'
NNNI4
I1
I0
tbS'rock'
tRp5066
I2503
tp5067
a(g2
(g3
(S'S5'
I0
I1
tRp5068
(I3
S'|'
NNNI5
I1
I0
tbS'charl'
tRp5069
I2503
tp5070
a(g2
(g3
(S'S6'
I0
I1
tRp5071
(I3
S'|'
NNNI6
I1
I0
tbS'barley'
tRp5072
I2502
tp5073
a(g2
(g3
(S'S7'
I0
I1
tRp5074
(I3
S'|'
NNNI7
I1
I0
tbS'interim'
tRp5075
I2501
tp5076
a(g2
(g3
(S'S10'
I0
I1
tRp5077
(I3
S'|'
NNNI10
I1
I0
tbS'convertibl'
tRp5078
I2501
tp5079
a(g2
(g3
(S'S10'
I0
I1
tRp5080
(I3
S'|'
NNNI10
I1
I0
tbS'expenditur'
tRp5081
I2497
tp5082
a(g2
(g3
(S'S4'
I0
I1
tRp5083
(I3
S'|'
NNNI4
I1
I0
tbS'liff'
tRp5084
I2496
tp5085
a(g2
(g3
(S'S5'
I0
I1
tRp5086
(I3
S'|'
NNNI5
I1
I0
tbS'dozen'
tRp5087
I2495
tp5088
a(g2
(g3
(S'S6'
I0
I1
tRp5089
(I3
S'|'
NNNI6
I1
I0
tbS'jersey'
tRp5090
I2491
tp5091
a(g2
(g3
(S'S4'
I0
I1
tRp5092
(I3
S'|'
NNNI4
I1
I0
tbS'chos'
tRp5093
I2485
tp5094
a(g2
(g3
(S'S4'
I0
I1
tRp5095
(I3
S'|'
NNNI4
I1
I0
tbS'voic'
tRp5096
I2482
tp5097
a(g2
(g3
(S'S4'
I0
I1
tRp5098
(I3
S'|'
NNNI4
I1
I0
tbS'snap'
tRp5099
I2480
tp5100
a(g2
(g3
(S'S4'
I0
I1
tRp5101
(I3
S'|'
NNNI4
I1
I0
tbS'sort'
tRp5102
I2478
tp5103
a(g2
(g3
(S'S5'
I0
I1
tRp5104
(I3
S'|'
NNNI5
I1
I0
tbS'print'
tRp5105
I2476
tp5106
a(g2
(g3
(S'S5'
I0
I1
tRp5107
(I3
S'|'
NNNI5
I1
I0
tbS'shell'
tRp5108
I2474
tp5109
a(g2
(g3
(S'S7'
I0
I1
tRp5110
(I3
S'|'
NNNI7
I1
I0
tbS'partial'
tRp5111
I2472
tp5112
a(g2
(g3
(S'S6'
I0
I1
tRp5113
(I3
S'|'
NNNI6
I1
I0
tbS'prison'
tRp5114
I2470
tp5115
a(g2
(g3
(S'S6'
I0
I1
tRp5116
(I3
S'|'
NNNI6
I1
I0
tbS'extern'
tRp5117
I2470
tp5118
a(g2
(g3
(S'S5'
I0
I1
tRp5119
(I3
S'|'
NNNI5
I1
I0
tbS'haven'
tRp5120
I2469
tp5121
a(g2
(g3
(S'S6'
I0
I1
tRp5122
(I3
S'|'
NNNI6
I1
I0
tbS'regard'
tRp5123
I2467
tp5124
a(g2
(g3
(S'S8'
I0
I1
tRp5125
(I3
S'|'
NNNI8
I1
I0
tbS'palestin'
tRp5126
I2465
tp5127
a(g2
(g3
(S'S4'
I0
I1
tRp5128
(I3
S'|'
NNNI4
I1
I0
tbS'crim'
tRp5129
I2464
tp5130
a(g2
(g3
(S'S7'
I0
I1
tRp5131
(I3
S'|'
NNNI7
I1
I0
tbS'ringgit'
tRp5132
I2462
tp5133
a(g2
(g3
(S'S7'
I0
I1
tRp5134
(I3
S'|'
NNNI7
I1
I0
tbS'retreat'
tRp5135
I2462
tp5136
a(g2
(g3
(S'S5'
I0
I1
tRp5137
(I3
S'|'
NNNI5
I1
I0
tbS'jacqu'
tRp5138
I2461
tp5139
a(g2
(g3
(S'S5'
I0
I1
tRp5140
(I3
S'|'
NNNI5
I1
I0
tbS'steep'
tRp5141
I2459
tp5142
a(g2
(g3
(S'S4'
I0
I1
tRp5143
(I3
S'|'
NNNI4
I1
I0
tbS'mild'
tRp5144
I2458
tp5145
a(g2
(g3
(S'S6'
I0
I1
tRp5146
(I3
S'|'
NNNI6
I1
I0
tbS'slovak'
tRp5147
I2456
tp5148
a(g2
(g3
(S'S8'
I0
I1
tRp5149
(I3
S'|'
NNNI8
I1
I0
tbS'calendar'
tRp5150
I2455
tp5151
a(g2
(g3
(S'S4'
I0
I1
tRp5152
(I3
S'|'
NNNI4
I1
I0
tbS'murd'
tRp5153
I2453
tp5154
a(g2
(g3
(S'S6'
I0
I1
tRp5155
(I3
S'|'
NNNI6
I1
I0
tbS'basket'
tRp5156
I2453
tp5157
a(g2
(g3
(S'S7'
I0
I1
tRp5158
(I3
S'|'
NNNI7
I1
I0
tbS'practic'
tRp5159
I2451
tp5160
a(g2
(g3
(S'S6'
I0
I1
tRp5161
(I3
S'|'
NNNI6
I1
I0
tbS'diesel'
tRp5162
I2447
tp5163
a(g2
(g3
(S'S5'
I0
I1
tRp5164
(I3
S'|'
NNNI5
I1
I0
tbS'reviv'
tRp5165
I2446
tp5166
a(g2
(g3
(S'S6'
I0
I1
tRp5167
(I3
S'|'
NNNI6
I1
I0
tbS'degree'
tRp5168
I2444
tp5169
a(g2
(g3
(S'S5'
I0
I1
tRp5170
(I3
S'|'
NNNI5
I1
I0
tbS'reluc'
tRp5171
I2443
tp5172
a(g2
(g3
(S'S3'
I0
I1
tRp5173
(I3
S'|'
NNNI3
I1
I0
tbS'dtp'
tRp5174
I2443
tp5175
a(g2
(g3
(S'S3'
I0
I1
tRp5176
(I3
S'|'
NNNI3
I1
I0
tbS'est'
tRp5177
I2440
tp5178
a(g2
(g3
(S'S7'
I0
I1
tRp5179
(I3
S'|'
NNNI7
I1
I0
tbS'bargain'
tRp5180
I2440
tp5181
a(g2
(g3
(S'S4'
I0
I1
tRp5182
(I3
S'|'
NNNI4
I1
I0
tbS'lock'
tRp5183
I2439
tp5184
a(g2
(g3
(S'S5'
I0
I1
tRp5185
(I3
S'|'
NNNI5
I1
I0
tbS'illeg'
tRp5186
I2431
tp5187
a(g2
(g3
(S'S8'
I0
I1
tRp5188
(I3
S'|'
NNNI8
I1
I0
tbS'criticis'
tRp5189
I2431
tp5190
a(g2
(g3
(S'S5'
I0
I1
tRp5191
(I3
S'|'
NNNI5
I1
I0
tbS'merch'
tRp5192
I2427
tp5193
a(g2
(g3
(S'S4'
I0
I1
tRp5194
(I3
S'|'
NNNI4
I1
I0
tbS'greg'
tRp5195
I2427
tp5196
a(g2
(g3
(S'S4'
I0
I1
tRp5197
(I3
S'|'
NNNI4
I1
I0
tbS'dull'
tRp5198
I2427
tp5199
a(g2
(g3
(S'S5'
I0
I1
tRp5200
(I3
S'|'
NNNI5
I1
I0
tbS'citiz'
tRp5201
I2426
tp5202
a(g2
(g3
(S'S5'
I0
I1
tRp5203
(I3
S'|'
NNNI5
I1
I0
tbS'repay'
tRp5204
I2420
tp5205
a(g2
(g3
(S'S5'
I0
I1
tRp5206
(I3
S'|'
NNNI5
I1
I0
tbS'crack'
tRp5207
I2420
tp5208
a(g2
(g3
(S'S4'
I0
I1
tRp5209
(I3
S'|'
NNNI4
I1
I0
tbS'lean'
tRp5210
I2417
tp5211
a(g2
(g3
(S'S6'
I0
I1
tRp5212
(I3
S'|'
NNNI6
I1
I0
tbS'window'
tRp5213
I2415
tp5214
a(g2
(g3
(S'S5'
I0
I1
tRp5215
(I3
S'|'
NNNI5
I1
I0
tbS'crush'
tRp5216
I2412
tp5217
a(g2
(g3
(S'S4'
I0
I1
tRp5218
(I3
S'|'
NNNI4
I1
I0
tbS'delh'
tRp5219
I2410
tp5220
a(g2
(g3
(S'S4'
I0
I1
tRp5221
(I3
S'|'
NNNI4
I1
I0
tbS'kual'
tRp5222
I2405
tp5223
a(g2
(g3
(S'S4'
I0
I1
tRp5224
(I3
S'|'
NNNI4
I1
I0
tbS'trim'
tRp5225
I2404
tp5226
a(g2
(g3
(S'S5'
I0
I1
tRp5227
(I3
S'|'
NNNI5
I1
I0
tbS'greec'
tRp5228
I2403
tp5229
a(g2
(g3
(S'S3'
I0
I1
tRp5230
(I3
S'|'
NNNI3
I1
I0
tbS'wif'
tRp5231
I2402
tp5232
a(g2
(g3
(S'S5'
I0
I1
tRp5233
(I3
S'|'
NNNI5
I1
I0
tbS'calif'
tRp5234
I2402
tp5235
a(g2
(g3
(S'S5'
I0
I1
tRp5236
(I3
S'|'
NNNI5
I1
I0
tbS'carlo'
tRp5237
I2397
tp5238
a(g2
(g3
(S'S4'
I0
I1
tRp5239
(I3
S'|'
NNNI4
I1
I0
tbS'fish'
tRp5240
I2396
tp5241
a(g2
(g3
(S'S7'
I0
I1
tRp5242
(I3
S'|'
NNNI7
I1
I0
tbS'elector'
tRp5243
I2396
tp5244
a(g2
(g3
(S'S4'
I0
I1
tRp5245
(I3
S'|'
NNNI4
I1
I0
tbS'damp'
tRp5246
I2395
tp5247
a(g2
(g3
(S'S5'
I0
I1
tRp5248
(I3
S'|'
NNNI5
I1
I0
tbS'athen'
tRp5249
I2394
tp5250
a(g2
(g3
(S'S3'
I0
I1
tRp5251
(I3
S'|'
NNNI3
I1
I0
tbS'rio'
tRp5252
I2393
tp5253
a(g2
(g3
(S'S6'
I0
I1
tRp5254
(I3
S'|'
NNNI6
I1
I0
tbS'upgrad'
tRp5255
I2392
tp5256
a(g2
(g3
(S'S6'
I0
I1
tRp5257
(I3
S'|'
NNNI6
I1
I0
tbS'inquir'
tRp5258
I2392
tp5259
a(g2
(g3
(S'S8'
I0
I1
tRp5260
(I3
S'|'
NNNI8
I1
I0
tbS'underpin'
tRp5261
I2391
tp5262
a(g2
(g3
(S'S6'
I0
I1
tRp5263
(I3
S'|'
NNNI6
I1
I0
tbS'formul'
tRp5264
I2390
tp5265
a(g2
(g3
(S'S4'
I0
I1
tRp5266
(I3
S'|'
NNNI4
I1
I0
tbS'inst'
tRp5267
I2389
tp5268
a(g2
(g3
(S'S4'
I0
I1
tRp5269
(I3
S'|'
NNNI4
I1
I0
tbS'wind'
tRp5270
I2388
tp5271
a(g2
(g3
(S'S3'
I0
I1
tRp5272
(I3
S'|'
NNNI3
I1
I0
tbS'mgt'
tRp5273
I2388
tp5274
a(g2
(g3
(S'S5'
I0
I1
tRp5275
(I3
S'|'
NNNI5
I1
I0
tbS'shoot'
tRp5276
I2386
tp5277
a(g2
(g3
(S'S5'
I0
I1
tRp5278
(I3
S'|'
NNNI5
I1
I0
tbS'clean'
tRp5279
I2376
tp5280
a(g2
(g3
(S'S5'
I0
I1
tRp5281
(I3
S'|'
NNNI5
I1
I0
tbS'olymp'
tRp5282
I2374
tp5283
a(g2
(g3
(S'S6'
I0
I1
tRp5284
(I3
S'|'
NNNI6
I1
I0
tbS'norway'
tRp5285
I2374
tp5286
a(g2
(g3
(S'S5'
I0
I1
tRp5287
(I3
S'|'
NNNI5
I1
I0
tbS'greek'
tRp5288
I2374
tp5289
a(g2
(g3
(S'S4'
I0
I1
tRp5290
(I3
S'|'
NNNI4
I1
I0
tbS'semi'
tRp5291
I2371
tp5292
a(g2
(g3
(S'S6'
I0
I1
tRp5293
(I3
S'|'
NNNI6
I1
I0
tbS'southw'
tRp5294
I2370
tp5295
a(g2
(g3
(S'S7'
I0
I1
tRp5296
(I3
S'|'
NNNI7
I1
I0
tbS'pipelin'
tRp5297
I2368
tp5298
a(g2
(g3
(S'S4'
I0
I1
tRp5299
(I3
S'|'
NNNI4
I1
I0
tbS'sole'
tRp5300
I2367
tp5301
a(g2
(g3
(S'S4'
I0
I1
tRp5302
(I3
S'|'
NNNI4
I1
I0
tbS'burn'
tRp5303
I2360
tp5304
a(g2
(g3
(S'S6'
I0
I1
tRp5305
(I3
S'|'
NNNI6
I1
I0
tbS'explos'
tRp5306
I2359
tp5307
a(g2
(g3
(S'S7'
I0
I1
tRp5308
(I3
S'|'
NNNI7
I1
I0
tbS'bullion'
tRp5309
I2359
tp5310
a(g2
(g3
(S'S5'
I0
I1
tRp5311
(I3
S'|'
NNNI5
I1
I0
tbS'seoul'
tRp5312
I2357
tp5313
a(g2
(g3
(S'S8'
I0
I1
tRp5314
(I3
S'|'
NNNI8
I1
I0
tbS'slowdown'
tRp5315
I2354
tp5316
a(g2
(g3
(S'S3'
I0
I1
tRp5317
(I3
S'|'
NNNI3
I1
I0
tbS'ind'
tRp5318
I2354
tp5319
a(g2
(g3
(S'S8'
I0
I1
tRp5320
(I3
S'|'
NNNI8
I1
I0
tbS'venezuel'
tRp5321
I2351
tp5322
a(g2
(g3
(S'S7'
I0
I1
tRp5323
(I3
S'|'
NNNI7
I1
I0
tbS'decreas'
tRp5324
I2349
tp5325
a(g2
(g3
(S'S9'
I0
I1
tRp5326
(I3
S'|'
NNNI9
I1
I0
tbS'businessm'
tRp5327
I2346
tp5328
a(g2
(g3
(S'S6'
I0
I1
tRp5329
(I3
S'|'
NNNI6
I1
I0
tbS'massiv'
tRp5330
I2343
tp5331
a(g2
(g3
(S'S3'
I0
I1
tRp5332
(I3
S'|'
NNNI3
I1
I0
tbS'emu'
tRp5333
I2340
tp5334
a(g2
(g3
(S'S6'
I0
I1
tRp5335
(I3
S'|'
NNNI6
I1
I0
tbS'lumpur'
tRp5336
I2338
tp5337
a(g2
(g3
(S'S4'
I0
I1
tRp5338
(I3
S'|'
NNNI4
I1
I0
tbS'spur'
tRp5339
I2337
tp5340
a(g2
(g3
(S'S10'
I0
I1
tRp5341
(I3
S'|'
NNNI10
I1
I0
tbS'wellington'
tRp5342
I2336
tp5343
a(g2
(g3
(S'S10'
I0
I1
tRp5344
(I3
S'|'
NNNI10
I1
I0
tbS'ambassador'
tRp5345
I2336
tp5346
a(g2
(g3
(S'S6'
I0
I1
tRp5347
(I3
S'|'
NNNI6
I1
I0
tbS'except'
tRp5348
I2331
tp5349
a(g2
(g3
(S'S5'
I0
I1
tRp5350
(I3
S'|'
NNNI5
I1
I0
tbS'shock'
tRp5351
I2329
tp5352
a(g2
(g3
(S'S6'
I0
I1
tRp5353
(I3
S'|'
NNNI6
I1
I0
tbS'bulgar'
tRp5354
I2329
tp5355
a(g2
(g3
(S'S5'
I0
I1
tRp5356
(I3
S'|'
NNNI5
I1
I0
tbS'affil'
tRp5357
I2328
tp5358
a(g2
(g3
(S'S3'
I0
I1
tRp5359
(I3
S'|'
NNNI3
I1
I0
tbS'pit'
tRp5360
I2326
tp5361
a(g2
(g3
(S'S3'
I0
I1
tRp5362
(I3
S'|'
NNNI3
I1
I0
tbS'cif'
tRp5363
I2326
tp5364
a(g2
(g3
(S'S6'
I0
I1
tRp5365
(I3
S'|'
NNNI6
I1
I0
tbS'scient'
tRp5366
I2324
tp5367
a(g2
(g3
(S'S4'
I0
I1
tRp5368
(I3
S'|'
NNNI4
I1
I0
tbS'rush'
tRp5369
I2324
tp5370
a(g2
(g3
(S'S8'
I0
I1
tRp5371
(I3
S'|'
NNNI8
I1
I0
tbS'favourit'
tRp5372
I2323
tp5373
a(g2
(g3
(S'S5'
I0
I1
tRp5374
(I3
S'|'
NNNI5
I1
I0
tbS'blast'
tRp5375
I2323
tp5376
a(g2
(g3
(S'S4'
I0
I1
tRp5377
(I3
S'|'
NNNI4
I1
I0
tbS'alex'
tRp5378
I2322
tp5379
a(g2
(g3
(S'S6'
I0
I1
tRp5380
(I3
S'|'
NNNI6
I1
I0
tbS'diplom'
tRp5381
I2319
tp5382
a(g2
(g3
(S'S5'
I0
I1
tRp5383
(I3
S'|'
NNNI5
I1
I0
tbS'swing'
tRp5384
I2318
tp5385
a(g2
(g3
(S'S6'
I0
I1
tRp5386
(I3
S'|'
NNNI6
I1
I0
tbS'fellow'
tRp5387
I2315
tp5388
a(g2
(g3
(S'S4'
I0
I1
tRp5389
(I3
S'|'
NNNI4
I1
I0
tbS'peru'
tRp5390
I2314
tp5391
a(g2
(g3
(S'S5'
I0
I1
tRp5392
(I3
S'|'
NNNI5
I1
I0
tbS'schem'
tRp5393
I2311
tp5394
a(g2
(g3
(S'S6'
I0
I1
tRp5395
(I3
S'|'
NNNI6
I1
I0
tbS'cotton'
tRp5396
I2310
tp5397
a(g2
(g3
(S'S4'
I0
I1
tRp5398
(I3
S'|'
NNNI4
I1
I0
tbS'quit'
tRp5399
I2308
tp5400
a(g2
(g3
(S'S7'
I0
I1
tRp5401
(I3
S'|'
NNNI7
I1
I0
tbS'seventh'
tRp5402
I2307
tp5403
a(g2
(g3
(S'S6'
I0
I1
tRp5404
(I3
S'|'
NNNI6
I1
I0
tbS'orient'
tRp5405
I2303
tp5406
a(g2
(g3
(S'S7'
I0
I1
tRp5407
(I3
S'|'
NNNI7
I1
I0
tbS'persist'
tRp5408
I2302
tp5409
a(g2
(g3
(S'S7'
I0
I1
tRp5410
(I3
S'|'
NNNI7
I1
I0
tbS'conglom'
tRp5411
I2302
tp5412
a(g2
(g3
(S'S4'
I0
I1
tRp5413
(I3
S'|'
NNNI4
I1
I0
tbS'busy'
tRp5414
I2302
tp5415
a(g2
(g3
(S'S5'
I0
I1
tRp5416
(I3
S'|'
NNNI5
I1
I0
tbS'knock'
tRp5417
I2301
tp5418
a(g2
(g3
(S'S9'
I0
I1
tRp5419
(I3
S'|'
NNNI9
I1
I0
tbS'rotterdam'
tRp5420
I2299
tp5421
a(g2
(g3
(S'S7'
I0
I1
tRp5422
(I3
S'|'
NNNI7
I1
I0
tbS'general'
tRp5423
I2299
tp5424
a(g2
(g3
(S'S3'
I0
I1
tRp5425
(I3
S'|'
NNNI3
I1
I0
tbS'sao'
tRp5426
I2298
tp5427
a(g2
(g3
(S'S4'
I0
I1
tRp5428
(I3
S'|'
NNNI4
I1
I0
tbS'curb'
tRp5429
I2297
tp5430
a(g2
(g3
(S'S5'
I0
I1
tRp5431
(I3
S'|'
NNNI5
I1
I0
tbS'effic'
tRp5432
I2296
tp5433
a(g2
(g3
(S'S4'
I0
I1
tRp5434
(I3
S'|'
NNNI4
I1
I0
tbS'answ'
tRp5435
I2294
tp5436
a(g2
(g3
(S'S7'
I0
I1
tRp5437
(I3
S'|'
NNNI7
I1
I0
tbS'finland'
tRp5438
I2293
tp5439
a(g2
(g3
(S'S5'
I0
I1
tRp5440
(I3
S'|'
NNNI5
I1
I0
tbS'irish'
tRp5441
I2291
tp5442
a(g2
(g3
(S'S6'
I0
I1
tRp5443
(I3
S'|'
NNNI6
I1
I0
tbS'reveal'
tRp5444
I2285
tp5445
a(g2
(g3
(S'S4'
I0
I1
tRp5446
(I3
S'|'
NNNI4
I1
I0
tbS'ohio'
tRp5447
I2283
tp5448
a(g2
(g3
(S'S5'
I0
I1
tRp5449
(I3
S'|'
NNNI5
I1
I0
tbS'catch'
tRp5450
I2277
tp5451
a(g2
(g3
(S'S4'
I0
I1
tRp5452
(I3
S'|'
NNNI4
I1
I0
tbS'imag'
tRp5453
I2276
tp5454
a(g2
(g3
(S'S7'
I0
I1
tRp5455
(I3
S'|'
NNNI7
I1
I0
tbS'denomin'
tRp5456
I2275
tp5457
a(g2
(g3
(S'S7'
I0
I1
tRp5458
(I3
S'|'
NNNI7
I1
I0
tbS'corrupt'
tRp5459
I2275
tp5460
a(g2
(g3
(S'S3'
I0
I1
tRp5461
(I3
S'|'
NNNI3
I1
I0
tbS'fts'
tRp5462
I2273
tp5463
a(g2
(g3
(S'S7'
I0
I1
tRp5464
(I3
S'|'
NNNI7
I1
I0
tbS'delegat'
tRp5465
I2269
tp5466
a(g2
(g3
(S'S8'
I0
I1
tRp5467
(I3
S'|'
NNNI8
I1
I0
tbS'warehous'
tRp5468
I2267
tp5469
a(g2
(g3
(S'S8'
I0
I1
tRp5470
(I3
S'|'
NNNI8
I1
I0
tbS'minnesot'
tRp5471
I2262
tp5472
a(g2
(g3
(S'S4'
I0
I1
tRp5473
(I3
S'|'
NNNI4
I1
I0
tbS'lawy'
tRp5474
I2257
tp5475
a(g2
(g3
(S'S5'
I0
I1
tRp5476
(I3
S'|'
NNNI5
I1
I0
tbS'guild'
tRp5477
I2257
tp5478
a(g2
(g3
(S'S4'
I0
I1
tRp5479
(I3
S'|'
NNNI4
I1
I0
tbS'gear'
tRp5480
I2255
tp5481
a(g2
(g3
(S'S4'
I0
I1
tRp5482
(I3
S'|'
NNNI4
I1
I0
tbS'doct'
tRp5483
I2255
tp5484
a(g2
(g3
(S'S4'
I0
I1
tRp5485
(I3
S'|'
NNNI4
I1
I0
tbS'boom'
tRp5486
I2255
tp5487
a(g2
(g3
(S'S5'
I0
I1
tRp5488
(I3
S'|'
NNNI5
I1
I0
tbS'reoff'
tRp5489
I2251
tp5490
a(g2
(g3
(S'S7'
I0
I1
tRp5491
(I3
S'|'
NNNI7
I1
I0
tbS'nuclear'
tRp5492
I2250
tp5493
a(g2
(g3
(S'S4'
I0
I1
tRp5494
(I3
S'|'
NNNI4
I1
I0
tbS'iowa'
tRp5495
I2249
tp5496
a(g2
(g3
(S'S4'
I0
I1
tRp5497
(I3
S'|'
NNNI4
I1
I0
tbS'born'
tRp5498
I2249
tp5499
a(g2
(g3
(S'S9'
I0
I1
tRp5500
(I3
S'|'
NNNI9
I1
I0
tbS'highlight'
tRp5501
I2248
tp5502
a(g2
(g3
(S'S7'
I0
I1
tRp5503
(I3
S'|'
NNNI7
I1
I0
tbS'megawat'
tRp5504
I2247
tp5505
a(g2
(g3
(S'S4'
I0
I1
tRp5506
(I3
S'|'
NNNI4
I1
I0
tbS'palm'
tRp5507
I2243
tp5508
a(g2
(g3
(S'S3'
I0
I1
tRp5509
(I3
S'|'
NNNI3
I1
I0
tbS'ceo'
tRp5510
I2242
tp5511
a(g2
(g3
(S'S5'
I0
I1
tRp5512
(I3
S'|'
NNNI5
I1
I0
tbS'agend'
tRp5513
I2239
tp5514
a(g2
(g3
(S'S7'
I0
I1
tRp5515
(I3
S'|'
NNNI7
I1
I0
tbS'coordin'
tRp5516
I2238
tp5517
a(g2
(g3
(S'S6'
I0
I1
tRp5518
(I3
S'|'
NNNI6
I1
I0
tbS'licens'
tRp5519
I2237
tp5520
a(g2
(g3
(S'S4'
I0
I1
tRp5521
(I3
S'|'
NNNI4
I1
I0
tbS'hsbc'
tRp5522
I2237
tp5523
a(g2
(g3
(S'S7'
I0
I1
tRp5524
(I3
S'|'
NNNI7
I1
I0
tbS'alexand'
tRp5525
I2235
tp5526
a(g2
(g3
(S'S5'
I0
I1
tRp5527
(I3
S'|'
NNNI5
I1
I0
tbS'wrong'
tRp5528
I2234
tp5529
a(g2
(g3
(S'S4'
I0
I1
tRp5530
(I3
S'|'
NNNI4
I1
I0
tbS'tell'
tRp5531
I2234
tp5532
a(g2
(g3
(S'S7'
I0
I1
tRp5533
(I3
S'|'
NNNI7
I1
I0
tbS'absolut'
tRp5534
I2234
tp5535
a(g2
(g3
(S'S8'
I0
I1
tRp5536
(I3
S'|'
NNNI8
I1
I0
tbS'principl'
tRp5537
I2233
tp5538
a(g2
(g3
(S'S7'
I0
I1
tRp5539
(I3
S'|'
NNNI7
I1
I0
tbS'johnson'
tRp5540
I2233
tp5541
a(g2
(g3
(S'S6'
I0
I1
tRp5542
(I3
S'|'
NNNI6
I1
I0
tbS'elimin'
tRp5543
I2233
tp5544
a(g2
(g3
(S'S3'
I0
I1
tRp5545
(I3
S'|'
NNNI3
I1
I0
tbS'maj'
tRp5546
I2230
tp5547
a(g2
(g3
(S'S6'
I0
I1
tRp5548
(I3
S'|'
NNNI6
I1
I0
tbS'profil'
tRp5549
I2224
tp5550
a(g2
(g3
(S'S5'
I0
I1
tRp5551
(I3
S'|'
NNNI5
I1
I0
tbS'neutr'
tRp5552
I2224
tp5553
a(g2
(g3
(S'S4'
I0
I1
tRp5554
(I3
S'|'
NNNI4
I1
I0
tbS'spok'
tRp5555
I2223
tp5556
a(g2
(g3
(S'S8'
I0
I1
tRp5557
(I3
S'|'
NNNI8
I1
I0
tbS'prosecut'
tRp5558
I2222
tp5559
a(g2
(g3
(S'S8'
I0
I1
tRp5560
(I3
S'|'
NNNI8
I1
I0
tbS'pakistan'
tRp5561
I2222
tp5562
a(g2
(g3
(S'S6'
I0
I1
tRp5563
(I3
S'|'
NNNI6
I1
I0
tbS'repair'
tRp5564
I2220
tp5565
a(g2
(g3
(S'S5'
I0
I1
tRp5566
(I3
S'|'
NNNI5
I1
I0
tbS'steph'
tRp5567
I2218
tp5568
a(g2
(g3
(S'S6'
I0
I1
tRp5569
(I3
S'|'
NNNI6
I1
I0
tbS'welcom'
tRp5570
I2216
tp5571
a(g2
(g3
(S'S3'
I0
I1
tRp5572
(I3
S'|'
NNNI3
I1
I0
tbS'neg'
tRp5573
I2216
tp5574
a(g2
(g3
(S'S4'
I0
I1
tRp5575
(I3
S'|'
NNNI4
I1
I0
tbS'brew'
tRp5576
I2216
tp5577
a(g2
(g3
(S'S6'
I0
I1
tRp5578
(I3
S'|'
NNNI6
I1
I0
tbS'assign'
tRp5579
I2216
tp5580
a(g2
(g3
(S'S8'
I0
I1
tRp5581
(I3
S'|'
NNNI8
I1
I0
tbS'outright'
tRp5582
I2214
tp5583
a(g2
(g3
(S'S7'
I0
I1
tRp5584
(I3
S'|'
NNNI7
I1
I0
tbS'convent'
tRp5585
I2211
tp5586
a(g2
(g3
(S'S2'
I0
I1
tRp5587
(I3
S'|'
NNNI2
I1
I0
tbS'el'
tRp5588
I2208
tp5589
a(g2
(g3
(S'S5'
I0
I1
tRp5590
(I3
S'|'
NNNI5
I1
I0
tbS'subst'
tRp5591
I2207
tp5592
a(g2
(g3
(S'S3'
I0
I1
tRp5593
(I3
S'|'
NNNI3
I1
I0
tbS'plg'
tRp5594
I2207
tp5595
a(g2
(g3
(S'S3'
I0
I1
tRp5596
(I3
S'|'
NNNI3
I1
I0
tbS'crs'
tRp5597
I2207
tp5598
a(g2
(g3
(S'S6'
I0
I1
tRp5599
(I3
S'|'
NNNI6
I1
I0
tbS'compil'
tRp5600
I2203
tp5601
a(g2
(g3
(S'S3'
I0
I1
tRp5602
(I3
S'|'
NNNI3
I1
I0
tbS'sbi'
tRp5603
I2200
tp5604
a(g2
(g3
(S'S3'
I0
I1
tRp5605
(I3
S'|'
NNNI3
I1
I0
tbS'lay'
tRp5606
I2198
tp5607
a(g2
(g3
(S'S6'
I0
I1
tRp5608
(I3
S'|'
NNNI6
I1
I0
tbS'unveil'
tRp5609
I2197
tp5610
a(g2
(g3
(S'S5'
I0
I1
tRp5611
(I3
S'|'
NNNI5
I1
I0
tbS'marin'
tRp5612
I2190
tp5613
a(g2
(g3
(S'S3'
I0
I1
tRp5614
(I3
S'|'
NNNI3
I1
I0
tbS'wak'
tRp5615
I2186
tp5616
a(g2
(g3
(S'S4'
I0
I1
tRp5617
(I3
S'|'
NNNI4
I1
I0
tbS'door'
tRp5618
I2184
tp5619
a(g2
(g3
(S'S6'
I0
I1
tRp5620
(I3
S'|'
NNNI6
I1
I0
tbS'presal'
tRp5621
I2181
tp5622
a(g2
(g3
(S'S5'
I0
I1
tRp5623
(I3
S'|'
NNNI5
I1
I0
tbS'cloth'
tRp5624
I2181
tp5625
a(g2
(g3
(S'S5'
I0
I1
tRp5626
(I3
S'|'
NNNI5
I1
I0
tbS'niger'
tRp5627
I2180
tp5628
a(g2
(g3
(S'S3'
I0
I1
tRp5629
(I3
S'|'
NNNI3
I1
I0
tbS'ken'
tRp5630
I2180
tp5631
a(g2
(g3
(S'S6'
I0
I1
tRp5632
(I3
S'|'
NNNI6
I1
I0
tbS'ukrain'
tRp5633
I2176
tp5634
a(g2
(g3
(S'S4'
I0
I1
tRp5635
(I3
S'|'
NNNI4
I1
I0
tbS'jord'
tRp5636
I2170
tp5637
a(g2
(g3
(S'S7'
I0
I1
tRp5638
(I3
S'|'
NNNI7
I1
I0
tbS'abandon'
tRp5639
I2170
tp5640
a(g2
(g3
(S'S3'
I0
I1
tRp5641
(I3
S'|'
NNNI3
I1
I0
tbS'yrs'
tRp5642
I2169
tp5643
a(g2
(g3
(S'S8'
I0
I1
tRp5644
(I3
S'|'
NNNI8
I1
I0
tbS'surround'
tRp5645
I2169
tp5646
a(g2
(g3
(S'S2'
I0
I1
tRp5647
(I3
S'|'
NNNI2
I1
I0
tbS'mo'
tRp5648
I2168
tp5649
a(g2
(g3
(S'S3'
I0
I1
tRp5650
(I3
S'|'
NNNI3
I1
I0
tbS'ian'
tRp5651
I2167
tp5652
a(g2
(g3
(S'S3'
I0
I1
tRp5653
(I3
S'|'
NNNI3
I1
I0
tbS'inn'
tRp5654
I2166
tp5655
a(g2
(g3
(S'S10'
I0
I1
tRp5656
(I3
S'|'
NNNI10
I1
I0
tbS'philadelph'
tRp5657
I2164
tp5658
a(g2
(g3
(S'S5'
I0
I1
tRp5659
(I3
S'|'
NNNI5
I1
I0
tbS'fleet'
tRp5660
I2163
tp5661
a(g2
(g3
(S'S8'
I0
I1
tRp5662
(I3
S'|'
NNNI8
I1
I0
tbS'mountain'
tRp5663
I2161
tp5664
a(g2
(g3
(S'S5'
I0
I1
tRp5665
(I3
S'|'
NNNI5
I1
I0
tbS'frank'
tRp5666
I2161
tp5667
a(g2
(g3
(S'S8'
I0
I1
tRp5668
(I3
S'|'
NNNI8
I1
I0
tbS'contrast'
tRp5669
I2160
tp5670
a(g2
(g3
(S'S5'
I0
I1
tRp5671
(I3
S'|'
NNNI5
I1
I0
tbS'think'
tRp5672
I2158
tp5673
a(g2
(g3
(S'S4'
I0
I1
tRp5674
(I3
S'|'
NNNI4
I1
I0
tbS'pool'
tRp5675
I2158
tp5676
a(g2
(g3
(S'S3'
I0
I1
tRp5677
(I3
S'|'
NNNI3
I1
I0
tbS'nwe'
tRp5678
I2158
tp5679
a(g2
(g3
(S'S5'
I0
I1
tRp5680
(I3
S'|'
NNNI5
I1
I0
tbS'memor'
tRp5681
I2157
tp5682
a(g2
(g3
(S'S5'
I0
I1
tRp5683
(I3
S'|'
NNNI5
I1
I0
tbS'usual'
tRp5684
I2156
tp5685
a(g2
(g3
(S'S5'
I0
I1
tRp5686
(I3
S'|'
NNNI5
I1
I0
tbS'trail'
tRp5687
I2156
tp5688
a(g2
(g3
(S'S6'
I0
I1
tRp5689
(I3
S'|'
NNNI6
I1
I0
tbS'instru'
tRp5690
I2155
tp5691
a(g2
(g3
(S'S7'
I0
I1
tRp5692
(I3
S'|'
NNNI7
I1
I0
tbS'contest'
tRp5693
I2153
tp5694
a(g2
(g3
(S'S7'
I0
I1
tRp5695
(I3
S'|'
NNNI7
I1
I0
tbS'carolin'
tRp5696
I2153
tp5697
a(g2
(g3
(S'S6'
I0
I1
tRp5698
(I3
S'|'
NNNI6
I1
I0
tbS'nickel'
tRp5699
I2150
tp5700
a(g2
(g3
(S'S6'
I0
I1
tRp5701
(I3
S'|'
NNNI6
I1
I0
tbS'suffic'
tRp5702
I2149
tp5703
a(g2
(g3
(S'S8'
I0
I1
tRp5704
(I3
S'|'
NNNI8
I1
I0
tbS'intraday'
tRp5705
I2149
tp5706
a(g2
(g3
(S'S8'
I0
I1
tRp5707
(I3
S'|'
NNNI8
I1
I0
tbS'supervis'
tRp5708
I2143
tp5709
a(g2
(g3
(S'S8'
I0
I1
tRp5710
(I3
S'|'
NNNI8
I1
I0
tbS'citibank'
tRp5711
I2139
tp5712
a(g2
(g3
(S'S3'
I0
I1
tRp5713
(I3
S'|'
NNNI3
I1
I0
tbS'way'
tRp5714
I2134
tp5715
a(g2
(g3
(S'S6'
I0
I1
tRp5716
(I3
S'|'
NNNI6
I1
I0
tbS'rupiah'
tRp5717
I2134
tp5718
a(g2
(g3
(S'S6'
I0
I1
tRp5719
(I3
S'|'
NNNI6
I1
I0
tbS'resort'
tRp5720
I2129
tp5721
a(g2
(g3
(S'S4'
I0
I1
tRp5722
(I3
S'|'
NNNI4
I1
I0
tbS'scen'
tRp5723
I2127
tp5724
a(g2
(g3
(S'S6'
I0
I1
tRp5725
(I3
S'|'
NNNI6
I1
I0
tbS'violat'
tRp5726
I2126
tp5727
a(g2
(g3
(S'S4'
I0
I1
tRp5728
(I3
S'|'
NNNI4
I1
I0
tbS'curv'
tRp5729
I2124
tp5730
a(g2
(g3
(S'S5'
I0
I1
tRp5731
(I3
S'|'
NNNI5
I1
I0
tbS'imply'
tRp5732
I2123
tp5733
a(g2
(g3
(S'S4'
I0
I1
tRp5734
(I3
S'|'
NNNI4
I1
I0
tbS'iran'
tRp5735
I2122
tp5736
a(g2
(g3
(S'S8'
I0
I1
tRp5737
(I3
S'|'
NNNI8
I1
I0
tbS'intermed'
tRp5738
I2121
tp5739
a(g2
(g3
(S'S2'
I0
I1
tRp5740
(I3
S'|'
NNNI2
I1
I0
tbS'ii'
tRp5741
I2119
tp5742
a(g2
(g3
(S'S5'
I0
I1
tRp5743
(I3
S'|'
NNNI5
I1
I0
tbS'miner'
tRp5744
I2118
tp5745
a(g2
(g3
(S'S5'
I0
I1
tRp5746
(I3
S'|'
NNNI5
I1
I0
tbS'stanc'
tRp5747
I2112
tp5748
a(g2
(g3
(S'S4'
I0
I1
tRp5749
(I3
S'|'
NNNI4
I1
I0
tbS'marc'
tRp5750
I2112
tp5751
a(g2
(g3
(S'S5'
I0
I1
tRp5752
(I3
S'|'
NNNI5
I1
I0
tbS'ocean'
tRp5753
I2111
tp5754
a(g2
(g3
(S'S5'
I0
I1
tRp5755
(I3
S'|'
NNNI5
I1
I0
tbS'langu'
tRp5756
I2111
tp5757
a(g2
(g3
(S'S4'
I0
I1
tRp5758
(I3
S'|'
NNNI4
I1
I0
tbS'penc'
tRp5759
I2108
tp5760
a(g2
(g3
(S'S3'
I0
I1
tRp5761
(I3
S'|'
NNNI3
I1
I0
tbS'ham'
tRp5762
I2106
tp5763
a(g2
(g3
(S'S7'
I0
I1
tRp5764
(I3
S'|'
NNNI7
I1
I0
tbS'section'
tRp5765
I2103
tp5766
a(g2
(g3
(S'S3'
I0
I1
tRp5767
(I3
S'|'
NNNI3
I1
I0
tbS'pts'
tRp5768
I2103
tp5769
a(g2
(g3
(S'S5'
I0
I1
tRp5770
(I3
S'|'
NNNI5
I1
I0
tbS'typic'
tRp5771
I2102
tp5772
a(g2
(g3
(S'S5'
I0
I1
tRp5773
(I3
S'|'
NNNI5
I1
I0
tbS'refug'
tRp5774
I2102
tp5775
a(g2
(g3
(S'S4'
I0
I1
tRp5776
(I3
S'|'
NNNI4
I1
I0
tbS'pipe'
tRp5777
I2101
tp5778
a(g2
(g3
(S'S5'
I0
I1
tRp5779
(I3
S'|'
NNNI5
I1
I0
tbS'bolst'
tRp5780
I2100
tp5781
a(g2
(g3
(S'S13'
I0
I1
tRp5782
(I3
S'|'
NNNI13
I1
I0
tbS'mediterranean'
tRp5783
I2098
tp5784
a(g2
(g3
(S'S6'
I0
I1
tRp5785
(I3
S'|'
NNNI6
I1
I0
tbS'father'
tRp5786
I2097
tp5787
a(g2
(g3
(S'S4'
I0
I1
tRp5788
(I3
S'|'
NNNI4
I1
I0
tbS'love'
tRp5789
I2096
tp5790
a(g2
(g3
(S'S5'
I0
I1
tRp5791
(I3
S'|'
NNNI5
I1
I0
tbS'henry'
tRp5792
I2096
tp5793
a(g2
(g3
(S'S8'
I0
I1
tRp5794
(I3
S'|'
NNNI8
I1
I0
tbS'procedur'
tRp5795
I2095
tp5796
a(g2
(g3
(S'S6'
I0
I1
tRp5797
(I3
S'|'
NNNI6
I1
I0
tbS'ethnic'
tRp5798
I2094
tp5799
a(g2
(g3
(S'S3'
I0
I1
tRp5800
(I3
S'|'
NNNI3
I1
I0
tbS'cme'
tRp5801
I2094
tp5802
a(g2
(g3
(S'S6'
I0
I1
tRp5803
(I3
S'|'
NNNI6
I1
I0
tbS'capabl'
tRp5804
I2093
tp5805
a(g2
(g3
(S'S4'
I0
I1
tRp5806
(I3
S'|'
NNNI4
I1
I0
tbS'warm'
tRp5807
I2089
tp5808
a(g2
(g3
(S'S3'
I0
I1
tRp5809
(I3
S'|'
NNNI3
I1
I0
tbS'sam'
tRp5810
I2089
tp5811
a(g2
(g3
(S'S6'
I0
I1
tRp5812
(I3
S'|'
NNNI6
I1
I0
tbS'gallon'
tRp5813
I2088
tp5814
a(g2
(g3
(S'S6'
I0
I1
tRp5815
(I3
S'|'
NNNI6
I1
I0
tbS'realis'
tRp5816
I2084
tp5817
a(g2
(g3
(S'S5'
I0
I1
tRp5818
(I3
S'|'
NNNI5
I1
I0
tbS'occup'
tRp5819
I2084
tp5820
a(g2
(g3
(S'S6'
I0
I1
tRp5821
(I3
S'|'
NNNI6
I1
I0
tbS'inflow'
tRp5822
I2083
tp5823
a(g2
(g3
(S'S5'
I0
I1
tRp5824
(I3
S'|'
NNNI5
I1
I0
tbS'drain'
tRp5825
I2083
tp5826
a(g2
(g3
(S'S4'
I0
I1
tRp5827
(I3
S'|'
NNNI4
I1
I0
tbS'stad'
tRp5828
I2082
tp5829
a(g2
(g3
(S'S4'
I0
I1
tRp5830
(I3
S'|'
NNNI4
I1
I0
tbS'ride'
tRp5831
I2081
tp5832
a(g2
(g3
(S'S4'
I0
I1
tRp5833
(I3
S'|'
NNNI4
I1
I0
tbS'rare'
tRp5834
I2076
tp5835
a(g2
(g3
(S'S4'
I0
I1
tRp5836
(I3
S'|'
NNNI4
I1
I0
tbS'guid'
tRp5837
I2075
tp5838
a(g2
(g3
(S'S5'
I0
I1
tRp5839
(I3
S'|'
NNNI5
I1
I0
tbS'brian'
tRp5840
I2075
tp5841
a(g2
(g3
(S'S5'
I0
I1
tRp5842
(I3
S'|'
NNNI5
I1
I0
tbS'psych'
tRp5843
I2073
tp5844
a(g2
(g3
(S'S5'
I0
I1
tRp5845
(I3
S'|'
NNNI5
I1
I0
tbS'upcom'
tRp5846
I2072
tp5847
a(g2
(g3
(S'S3'
I0
I1
tRp5848
(I3
S'|'
NNNI3
I1
I0
tbS'sud'
tRp5849
I2069
tp5850
a(g2
(g3
(S'S4'
I0
I1
tRp5851
(I3
S'|'
NNNI4
I1
I0
tbS'dang'
tRp5852
I2069
tp5853
a(g2
(g3
(S'S4'
I0
I1
tRp5854
(I3
S'|'
NNNI4
I1
I0
tbS'beef'
tRp5855
I2068
tp5856
a(g2
(g3
(S'S5'
I0
I1
tRp5857
(I3
S'|'
NNNI5
I1
I0
tbS'clark'
tRp5858
I2061
tp5859
a(g2
(g3
(S'S5'
I0
I1
tRp5860
(I3
S'|'
NNNI5
I1
I0
tbS'rescu'
tRp5861
I2057
tp5862
a(g2
(g3
(S'S7'
I0
I1
tRp5863
(I3
S'|'
NNNI7
I1
I0
tbS'portugu'
tRp5864
I2057
tp5865
a(g2
(g3
(S'S7'
I0
I1
tRp5866
(I3
S'|'
NNNI7
I1
I0
tbS'denmark'
tRp5867
I2057
tp5868
a(g2
(g3
(S'S4'
I0
I1
tRp5869
(I3
S'|'
NNNI4
I1
I0
tbS'shap'
tRp5870
I2056
tp5871
a(g2
(g3
(S'S3'
I0
I1
tRp5872
(I3
S'|'
NNNI3
I1
I0
tbS'den'
tRp5873
I2054
tp5874
a(g2
(g3
(S'S6'
I0
I1
tRp5875
(I3
S'|'
NNNI6
I1
I0
tbS'payrol'
tRp5876
I2053
tp5877
a(g2
(g3
(S'S5'
I0
I1
tRp5878
(I3
S'|'
NNNI5
I1
I0
tbS'flood'
tRp5879
I2052
tp5880
a(g2
(g3
(S'S4'
I0
I1
tRp5881
(I3
S'|'
NNNI4
I1
I0
tbS'meal'
tRp5882
I2051
tp5883
a(g2
(g3
(S'S5'
I0
I1
tRp5884
(I3
S'|'
NNNI5
I1
I0
tbS'deflt'
tRp5885
I2050
tp5886
a(g2
(g3
(S'S7'
I0
I1
tRp5887
(I3
S'|'
NNNI7
I1
I0
tbS'student'
tRp5888
I2049
tp5889
a(g2
(g3
(S'S6'
I0
I1
tRp5890
(I3
S'|'
NNNI6
I1
I0
tbS'extent'
tRp5891
I2049
tp5892
a(g2
(g3
(S'S4'
I0
I1
tRp5893
(I3
S'|'
NNNI4
I1
I0
tbS'easi'
tRp5894
I2046
tp5895
a(g2
(g3
(S'S4'
I0
I1
tRp5896
(I3
S'|'
NNNI4
I1
I0
tbS'rice'
tRp5897
I2045
tp5898
a(g2
(g3
(S'S6'
I0
I1
tRp5899
(I3
S'|'
NNNI6
I1
I0
tbS'arabia'
tRp5900
I2044
tp5901
a(g2
(g3
(S'S7'
I0
I1
tRp5902
(I3
S'|'
NNNI7
I1
I0
tbS'yeltsin'
tRp5903
I2043
tp5904
a(g2
(g3
(S'S4'
I0
I1
tRp5905
(I3
S'|'
NNNI4
I1
I0
tbS'seal'
tRp5906
I2041
tp5907
a(g2
(g3
(S'S4'
I0
I1
tRp5908
(I3
S'|'
NNNI4
I1
I0
tbS'over'
tRp5909
I2038
tp5910
a(g2
(g3
(S'S4'
I0
I1
tRp5911
(I3
S'|'
NNNI4
I1
I0
tbS'drov'
tRp5912
I2038
tp5913
a(g2
(g3
(S'S6'
I0
I1
tRp5914
(I3
S'|'
NNNI6
I1
I0
tbS'lisbon'
tRp5915
I2033
tp5916
a(g2
(g3
(S'S4'
I0
I1
tRp5917
(I3
S'|'
NNNI4
I1
I0
tbS'spin'
tRp5918
I2030
tp5919
a(g2
(g3
(S'S7'
I0
I1
tRp5920
(I3
S'|'
NNNI7
I1
I0
tbS'display'
tRp5921
I2029
tp5922
a(g2
(g3
(S'S4'
I0
I1
tRp5923
(I3
S'|'
NNNI4
I1
I0
tbS'task'
tRp5924
I2027
tp5925
a(g2
(g3
(S'S2'
I0
I1
tRp5926
(I3
S'|'
NNNI2
I1
I0
tbS'mr'
tRp5927
I2027
tp5928
a(g2
(g3
(S'S9'
I0
I1
tRp5929
(I3
S'|'
NNNI9
I1
I0
tbS'entertain'
tRp5930
I2027
tp5931
a(g2
(g3
(S'S11'
I0
I1
tRp5932
(I3
S'|'
NNNI11
I1
I0
tbS'counterpart'
tRp5933
I2027
tp5934
a(g2
(g3
(S'S5'
I0
I1
tRp5935
(I3
S'|'
NNNI5
I1
I0
tbS'scand'
tRp5936
I2025
tp5937
a(g2
(g3
(S'S4'
I0
I1
tRp5938
(I3
S'|'
NNNI4
I1
I0
tbS'ongo'
tRp5939
I2024
tp5940
a(g2
(g3
(S'S5'
I0
I1
tRp5941
(I3
S'|'
NNNI5
I1
I0
tbS'mayor'
tRp5942
I2024
tp5943
a(g2
(g3
(S'S4'
I0
I1
tRp5944
(I3
S'|'
NNNI4
I1
I0
tbS'near'
tRp5945
I2018
tp5946
a(g2
(g3
(S'S5'
I0
I1
tRp5947
(I3
S'|'
NNNI5
I1
I0
tbS'dress'
tRp5948
I2017
tp5949
a(g2
(g3
(S'S4'
I0
I1
tRp5950
(I3
S'|'
NNNI4
I1
I0
tbS'bell'
tRp5951
I2017
tp5952
a(g2
(g3
(S'S3'
I0
I1
tRp5953
(I3
S'|'
NNNI3
I1
I0
tbS'wal'
tRp5954
I2014
tp5955
a(g2
(g3
(S'S3'
I0
I1
tRp5956
(I3
S'|'
NNNI3
I1
I0
tbS'hub'
tRp5957
I2014
tp5958
a(g2
(g3
(S'S7'
I0
I1
tRp5959
(I3
S'|'
NNNI7
I1
I0
tbS'freedom'
tRp5960
I2014
tp5961
a(g2
(g3
(S'S8'
I0
I1
tRp5962
(I3
S'|'
NNNI8
I1
I0
tbS'unexpect'
tRp5963
I2013
tp5964
a(g2
(g3
(S'S6'
I0
I1
tRp5965
(I3
S'|'
NNNI6
I1
I0
tbS'fought'
tRp5966
I2013
tp5967
a(g2
(g3
(S'S4'
I0
I1
tRp5968
(I3
S'|'
NNNI4
I1
I0
tbS'muni'
tRp5969
I2011
tp5970
a(g2
(g3
(S'S5'
I0
I1
tRp5971
(I3
S'|'
NNNI5
I1
I0
tbS'strip'
tRp5972
I2009
tp5973
a(g2
(g3
(S'S7'
I0
I1
tRp5974
(I3
S'|'
NNNI7
I1
I0
tbS'pattern'
tRp5975
I2009
tp5976
a(g2
(g3
(S'S6'
I0
I1
tRp5977
(I3
S'|'
NNNI6
I1
I0
tbS'height'
tRp5978
I2008
tp5979
a(g2
(g3
(S'S4'
I0
I1
tRp5980
(I3
S'|'
NNNI4
I1
I0
tbS'tech'
tRp5981
I2005
tp5982
a(g2
(g3
(S'S7'
I0
I1
tRp5983
(I3
S'|'
NNNI7
I1
I0
tbS'ceremon'
tRp5984
I2005
tp5985
a(g2
(g3
(S'S5'
I0
I1
tRp5986
(I3
S'|'
NNNI5
I1
I0
tbS'accid'
tRp5987
I2005
tp5988
a(g2
(g3
(S'S4'
I0
I1
tRp5989
(I3
S'|'
NNNI4
I1
I0
tbS'golf'
tRp5990
I1999
tp5991
a(g2
(g3
(S'S3'
I0
I1
tRp5992
(I3
S'|'
NNNI3
I1
I0
tbS'ppi'
tRp5993
I1998
tp5994
a(g2
(g3
(S'S6'
I0
I1
tRp5995
(I3
S'|'
NNNI6
I1
I0
tbS'length'
tRp5996
I1997
tp5997
a(g2
(g3
(S'S9'
I0
I1
tRp5998
(I3
S'|'
NNNI9
I1
I0
tbS'stockholm'
tRp5999
I1996
tp6000
a(g2
(g3
(S'S6'
I0
I1
tRp6001
(I3
S'|'
NNNI6
I1
I0
tbS'danish'
tRp6002
I1995
tp6003
a.