(lp1
(cnumpy.core.multiarray
scalar
p2
(cnumpy
dtype
p3
(S'S4'
I0
I1
tRp4
(I3
S'|'
NNNI4
I1
I0
tbS'year'
tRp5
I128048
tp6
a(g2
(g3
(S'S7'
I0
I1
tRp7
(I3
S'|'
NNNI7
I1
I0
tbS'percent'
tRp8
I120978
tp9
a(g2
(g3
(S'S6'
I0
I1
tRp10
(I3
S'|'
NNNI6
I1
I0
tbS'market'
tRp11
I115072
tp12
a(g2
(g3
(S'S4'
I0
I1
tRp13
(I3
S'|'
NNNI4
I1
I0
tbS'trad'
tRp14
I111824
tp15
a(g2
(g3
(S'S8'
I0
I1
tRp16
(I3
S'|'
NNNI8
I1
I0
tbS'newsroom'
tRp17
I110414
tp18
a(g2
(g3
(S'S7'
I0
I1
tRp19
(I3
S'|'
NNNI7
I1
I0
tbS'million'
tRp20
I99212
tp21
a(g2
(g3
(S'S4'
I0
I1
tRp22
(I3
S'|'
NNNI4
I1
I0
tbS'pric'
tRp23
I94972
tp24
a(g2
(g3
(S'S4'
I0
I1
tRp25
(I3
S'|'
NNNI4
I1
I0
tbS'stat'
tRp26
I87624
tp27
a(g2
(g3
(S'S4'
I0
I1
tRp28
(I3
S'|'
NNNI4
I1
I0
tbS'week'
tRp29
I81299
tp30
a(g2
(g3
(S'S4'
I0
I1
tRp31
(I3
S'|'
NNNI4
I1
I0
tbS'bank'
tRp32
I80782
tp33
a(g2
(g3
(S'S4'
I0
I1
tRp34
(I3
S'|'
NNNI4
I1
I0
tbS'high'
tRp35
I79507
tp36
a(g2
(g3
(S'S3'
I0
I1
tRp37
(I3
S'|'
NNNI3
I1
I0
tbS'end'
tRp38
I79379
tp39
a(g2
(g3
(S'S6'
I0
I1
tRp40
(I3
S'|'
NNNI6
I1
I0
tbS'expect'
tRp41
I78829
tp42
a(g2
(g3
(S'S4'
I0
I1
tRp43
(I3
S'|'
NNNI4
I1
I0
tbS'clos'
tRp44
I77647
tp45
a(g2
(g3
(S'S5'
I0
I1
tRp46
(I3
S'|'
NNNI5
I1
I0
tbS'month'
tRp47
I77269
tp48
a(g2
(g3
(S'S3'
I0
I1
tRp49
(I3
S'|'
NNNI3
I1
I0
tbS'day'
tRp50
I76584
tp51
a(g2
(g3
(S'S7'
I0
I1
tRp52
(I3
S'|'
NNNI7
I1
I0
tbS'tuesday'
tRp53
I74872
tp54
a(g2
(g3
(S'S6'
I0
I1
tRp55
(I3
S'|'
NNNI6
I1
I0
tbS'compan'
tRp56
I73179
tp57
a(g2
(g3
(S'S4'
I0
I1
tRp58
(I3
S'|'
NNNI4
I1
I0
tbS'cent'
tRp59
I72025
tp60
a(g2
(g3
(S'S9'
I0
I1
tRp61
(I3
S'|'
NNNI9
I1
I0
tbS'wednesday'
tRp62
I71935
tp63
a(g2
(g3
(S'S8'
I0
I1
tRp64
(I3
S'|'
NNNI8
I1
I0
tbS'thursday'
tRp65
I70774
tp66
a(g2
(g3
(S'S6'
I0
I1
tRp67
(I3
S'|'
NNNI6
I1
I0
tbS'monday'
tRp68
I69000
tp69
a(g2
(g3
(S'S6'
I0
I1
tRp70
(I3
S'|'
NNNI6
I1
I0
tbS'friday'
tRp71
I68770
tp72
a(g2
(g3
(S'S5'
I0
I1
tRp73
(I3
S'|'
NNNI5
I1
I0
tbS'early'
tRp74
I65742
tp75
a(g2
(g3
(S'S5'
I0
I1
tRp76
(I3
S'|'
NNNI5
I1
I0
tbS'offic'
tRp77
I65162
tp78
a(g2
(g3
(S'S4'
I0
I1
tRp79
(I3
S'|'
NNNI4
I1
I0
tbS'shar'
tRp80
I64415
tp81
a(g2
(g3
(S'S3'
I0
I1
tRp82
(I3
S'|'
NNNI3
I1
I0
tbS'low'
tRp83
I63921
tp84
a(g2
(g3
(S'S6'
I0
I1
tRp85
(I3
S'|'
NNNI6
I1
I0
tbS'report'
tRp86
I63469
tp87
a(g2
(g3
(S'S3'
I0
I1
tRp88
(I3
S'|'
NNNI3
I1
I0
tbS'add'
tRp89
I62398
tp90
a(g2
(g3
(S'S4'
I0
I1
tRp91
(I3
S'|'
NNNI4
I1
I0
tbS'rate'
tRp92
I62291
tp93
a(g2
(g3
(S'S4'
I0
I1
tRp94
(I3
S'|'
NNNI4
I1
I0
tbS'deal'
tRp95
I61474
tp96
a(g2
(g3
(S'S4'
I0
I1
tRp97
(I3
S'|'
NNNI4
I1
I0
tbS'time'
tRp98
I59057
tp99
a(g2
(g3
(S'S5'
I0
I1
tRp100
(I3
S'|'
NNNI5
I1
I0
tbS'stock'
tRp101
I57831
tp102
a(g2
(g3
(S'S5'
I0
I1
tRp103
(I3
S'|'
NNNI5
I1
I0
tbS'point'
tRp104
I56459
tp105
a(g2
(g3
(S'S4'
I0
I1
tRp106
(I3
S'|'
NNNI4
I1
I0
tbS'lead'
tRp107
I54821
tp108
a(g2
(g3
(S'S6'
I0
I1
tRp109
(I3
S'|'
NNNI6
I1
I0
tbS'invest'
tRp110
I52541
tp111
a(g2
(g3
(S'S4'
I0
I1
tRp112
(I3
S'|'
NNNI4
I1
I0
tbS'issu'
tRp113
I52035
tp114
a(g2
(g3
(S'S3'
I0
I1
tRp115
(I3
S'|'
NNNI3
I1
I0
tbS'buy'
tRp116
I51866
tp117
a(g2
(g3
(S'S6'
I0
I1
tRp118
(I3
S'|'
NNNI6
I1
I0
tbS'govern'
tRp119
I51592
tp120
a(g2
(g3
(S'S4'
I0
I1
tRp121
(I3
S'|'
NNNI4
I1
I0
tbS'unit'
tRp122
I51468
tp123
a(g2
(g3
(S'S6'
I0
I1
tRp124
(I3
S'|'
NNNI6
I1
I0
tbS'produc'
tRp125
I50416
tp126
a(g2
(g3
(S'S6'
I0
I1
tRp127
(I3
S'|'
NNNI6
I1
I0
tbS'financ'
tRp128
I49991
tp129
a(g2
(g3
(S'S8'
I0
I1
tRp130
(I3
S'|'
NNNI8
I1
I0
tbS'interest'
tRp131
I49610
tp132
a(g2
(g3
(S'S7'
I0
I1
tRp133
(I3
S'|'
NNNI7
I1
I0
tbS'billion'
tRp134
I49270
tp135
a(g2
(g3
(S'S5'
I0
I1
tRp136
(I3
S'|'
NNNI5
I1
I0
tbS'group'
tRp137
I48106
tp138
a(g2
(g3
(S'S4'
I0
I1
tRp139
(I3
S'|'
NNNI4
I1
I0
tbS'sale'
tRp140
I46573
tp141
a(g2
(g3
(S'S4'
I0
I1
tRp142
(I3
S'|'
NNNI4
I1
I0
tbS'firm'
tRp143
I46142
tp144
a(g2
(g3
(S'S4'
I0
I1
tRp145
(I3
S'|'
NNNI4
I1
I0
tbS'told'
tRp146
I45656
tp147
a(g2
(g3
(S'S6'
I0
I1
tRp148
(I3
S'|'
NNNI6
I1
I0
tbS'nation'
tRp149
I45621
tp150
a(g2
(g3
(S'S4'
I0
I1
tRp151
(I3
S'|'
NNNI4
I1
I0
tbS'make'
tRp152
I44079
tp153
a(g2
(g3
(S'S4'
I0
I1
tRp154
(I3
S'|'
NNNI4
I1
I0
tbS'base'
tRp155
I43899
tp156
a(g2
(g3
(S'S5'
I0
I1
tRp157
(I3
S'|'
NNNI5
I1
I0
tbS'total'
tRp158
I43742
tp159
a(g2
(g3
(S'S3'
I0
I1
tRp160
(I3
S'|'
NNNI3
I1
I0
tbS'due'
tRp161
I43723
tp162
a(g2
(g3
(S'S4'
I0
I1
tRp163
(I3
S'|'
NNNI4
I1
I0
tbS'sell'
tRp164
I43617
tp165
a(g2
(g3
(S'S4'
I0
I1
tRp166
(I3
S'|'
NNNI4
I1
I0
tbS'plan'
tRp167
I43062
tp168
a(g2
(g3
(S'S4'
I0
I1
tRp169
(I3
S'|'
NNNI4
I1
I0
tbS'late'
tRp170
I42909
tp171
a(g2
(g3
(S'S4'
I0
I1
tRp172
(I3
S'|'
NNNI4
I1
I0
tbS'rise'
tRp173
I42767
tp174
a(g2
(g3
(S'S6'
I0
I1
tRp175
(I3
S'|'
NNNI6
I1
I0
tbS'includ'
tRp176
I42561
tp177
a(g2
(g3
(S'S4'
I0
I1
tRp178
(I3
S'|'
NNNI4
I1
I0
tbS'move'
tRp179
I42456
tp180
a(g2
(g3
(S'S4'
I0
I1
tRp181
(I3
S'|'
NNNI4
I1
I0
tbS'term'
tRp182
I41985
tp183
a(g2
(g3
(S'S7'
I0
I1
tRp184
(I3
S'|'
NNNI7
I1
I0
tbS'continu'
tRp185
I41938
tp186
a(g2
(g3
(S'S4'
I0
I1
tRp187
(I3
S'|'
NNNI4
I1
I0
tbS'open'
tRp188
I41718
tp189
a(g2
(g3
(S'S5'
I0
I1
tRp190
(I3
S'|'
NNNI5
I1
I0
tbS'futur'
tRp191
I41468
tp192
a(g2
(g3
(S'S7'
I0
I1
tRp193
(I3
S'|'
NNNI7
I1
I0
tbS'exchang'
tRp194
I41429
tp195
a(g2
(g3
(S'S7'
I0
I1
tRp196
(I3
S'|'
NNNI7
I1
I0
tbS'industr'
tRp197
I41398
tp198
a(g2
(g3
(S'S3'
I0
I1
tRp199
(I3
S'|'
NNNI3
I1
I0
tbS'set'
tRp200
I40884
tp201
a(g2
(g3
(S'S6'
I0
I1
tRp202
(I3
S'|'
NNNI6
I1
I0
tbS'intern'
tRp203
I40745
tp204
a(g2
(g3
(S'S5'
I0
I1
tRp205
(I3
S'|'
NNNI5
I1
I0
tbS'level'
tRp206
I40539
tp207
a(g2
(g3
(S'S6'
I0
I1
tRp208
(I3
S'|'
NNNI6
I1
I0
tbS'econom'
tRp209
I40500
tp210
a(g2
(g3
(S'S4'
I0
I1
tRp211
(I3
S'|'
NNNI4
I1
I0
tbS'call'
tRp212
I40414
tp213
a(g2
(g3
(S'S5'
I0
I1
tRp214
(I3
S'|'
NNNI5
I1
I0
tbS'secur'
tRp215
I40341
tp216
a(g2
(g3
(S'S6'
I0
I1
tRp217
(I3
S'|'
NNNI6
I1
I0
tbS'remain'
tRp218
I40142
tp219
a(g2
(g3
(S'S4'
I0
I1
tRp220
(I3
S'|'
NNNI4
I1
I0
tbS'long'
tRp221
I39592
tp222
a(g2
(g3
(S'S4'
I0
I1
tRp223
(I3
S'|'
NNNI4
I1
I0
tbS'back'
tRp224
I39472
tp225
a(g2
(g3
(S'S4'
I0
I1
tRp226
(I3
S'|'
NNNI4
I1
I0
tbS'hold'
tRp227
I39362
tp228
a(g2
(g3
(S'S4'
I0
I1
tRp229
(I3
S'|'
NNNI4
I1
I0
tbS'reut'
tRp230
I39170
tp231
a(g2
(g3
(S'S4'
I0
I1
tRp232
(I3
S'|'
NNNI4
I1
I0
tbS'rose'
tRp233
I38892
tp234
a(g2
(g3
(S'S6'
I0
I1
tRp235
(I3
S'|'
NNNI6
I1
I0
tbS'presid'
tRp236
I38506
tp237
a(g2
(g3
(S'S5'
I0
I1
tRp238
(I3
S'|'
NNNI5
I1
I0
tbS'index'
tRp239
I38435
tp240
a(g2
(g3
(S'S6'
I0
I1
tRp241
(I3
S'|'
NNNI6
I1
I0
tbS'minist'
tRp242
I38171
tp243
a(g2
(g3
(S'S5'
I0
I1
tRp244
(I3
S'|'
NNNI5
I1
I0
tbS'manag'
tRp245
I37949
tp246
a(g2
(g3
(S'S7'
I0
I1
tRp247
(I3
S'|'
NNNI7
I1
I0
tbS'increas'
tRp248
I37630
tp249
a(g2
(g3
(S'S6'
I0
I1
tRp250
(I3
S'|'
NNNI6
I1
I0
tbS'london'
tRp251
I37511
tp252
a(g2
(g3
(S'S4'
I0
I1
tRp253
(I3
S'|'
NNNI4
I1
I0
tbS'bond'
tRp254
I37293
tp255
a(g2
(g3
(S'S3'
I0
I1
tRp256
(I3
S'|'
NNNI3
I1
I0
tbS'new'
tRp257
I36517
tp258
a(g2
(g3
(S'S4'
I0
I1
tRp259
(I3
S'|'
NNNI4
I1
I0
tbS'larg'
tRp260
I36496
tp261
a(g2
(g3
(S'S4'
I0
I1
tRp262
(I3
S'|'
NNNI4
I1
I0
tbS'june'
tRp263
I36134
tp264
a(g2
(g3
(S'S6'
I0
I1
tRp265
(I3
S'|'
NNNI6
I1
I0
tbS'strong'
tRp266
I36053
tp267
a(g2
(g3
(S'S5'
I0
I1
tRp268
(I3
S'|'
NNNI5
I1
I0
tbS'gener'
tRp269
I35893
tp270
a(g2
(g3
(S'S4'
I0
I1
tRp271
(I3
S'|'
NNNI4
I1
I0
tbS'gain'
tRp272
I35688
tp273
a(g2
(g3
(S'S7'
I0
I1
tRp274
(I3
S'|'
NNNI7
I1
I0
tbS'foreign'
tRp275
I35597
tp276
a(g2
(g3
(S'S5'
I0
I1
tRp277
(I3
S'|'
NNNI5
I1
I0
tbS'start'
tRp278
I35489
tp279
a(g2
(g3
(S'S4'
I0
I1
tRp280
(I3
S'|'
NNNI4
I1
I0
tbS'prev'
tRp281
I35128
tp282
a(g2
(g3
(S'S4'
I0
I1
tRp283
(I3
S'|'
NNNI4
I1
I0
tbS'note'
tRp284
I34935
tp285
a(g2
(g3
(S'S5'
I0
I1
tRp286
(I3
S'|'
NNNI5
I1
I0
tbS'major'
tRp287
I34922
tp288
a(g2
(g3
(S'S4'
I0
I1
tRp289
(I3
S'|'
NNNI4
I1
I0
tbS'fall'
tRp290
I34814
tp291
a(g2
(g3
(S'S6'
I0
I1
tRp292
(I3
S'|'
NNNI6
I1
I0
tbS'recent'
tRp293
I34775
tp294
a(g2
(g3
(S'S6'
I0
I1
tRp295
(I3
S'|'
NNNI6
I1
I0
tbS'operat'
tRp296
I34741
tp297
a(g2
(g3
(S'S6'
I0
I1
tRp298
(I3
S'|'
NNNI6
I1
I0
tbS'direct'
tRp299
I34151
tp300
a(g2
(g3
(S'S5'
I0
I1
tRp301
(I3
S'|'
NNNI5
I1
I0
tbS'capit'
tRp302
I33546
tp303
a(g2
(g3
(S'S7'
I0
I1
tRp304
(I3
S'|'
NNNI7
I1
I0
tbS'announc'
tRp305
I33465
tp306
a(g2
(g3
(S'S7'
I0
I1
tRp307
(I3
S'|'
NNNI7
I1
I0
tbS'support'
tRp308
I33255
tp309
a(g2
(g3
(S'S6'
I0
I1
tRp310
(I3
S'|'
NNNI6
I1
I0
tbS'result'
tRp311
I33160
tp312
a(g2
(g3
(S'S4'
I0
I1
tRp313
(I3
S'|'
NNNI4
I1
I0
tbS'fell'
tRp314
I33149
tp315
a(g2
(g3
(S'S5'
I0
I1
tRp316
(I3
S'|'
NNNI5
I1
I0
tbS'short'
tRp317
I33123
tp318
a(g2
(g3
(S'S5'
I0
I1
tRp319
(I3
S'|'
NNNI5
I1
I0
tbS'peopl'
tRp320
I32984
tp321
a(g2
(g3
(S'S6'
I0
I1
tRp322
(I3
S'|'
NNNI6
I1
I0
tbS'dollar'
tRp323
I32976
tp324
a(g2
(g3
(S'S6'
I0
I1
tRp325
(I3
S'|'
NNNI6
I1
I0
tbS'countr'
tRp326
I32944
tp327
a(g2
(g3
(S'S4'
I0
I1
tRp328
(I3
S'|'
NNNI4
I1
I0
tbS'anal'
tRp329
I32832
tp330
a(g2
(g3
(S'S4'
I0
I1
tRp331
(I3
S'|'
NNNI4
I1
I0
tbS'corp'
tRp332
I32786
tp333
a(g2
(g3
(S'S4'
I0
I1
tRp334
(I3
S'|'
NNNI4
I1
I0
tbS'date'
tRp335
I32208
tp336
a(g2
(g3
(S'S4'
I0
I1
tRp337
(I3
S'|'
NNNI4
I1
I0
tbS'meet'
tRp338
I32083
tp339
a(g2
(g3
(S'S6'
I0
I1
tRp340
(I3
S'|'
NNNI6
I1
I0
tbS'demand'
tRp341
I32067
tp342
a(g2
(g3
(S'S4'
I0
I1
tRp343
(I3
S'|'
NNNI4
I1
I0
tbS'busi'
tRp344
I32065
tp345
a(g2
(g3
(S'S4'
I0
I1
tRp346
(I3
S'|'
NNNI4
I1
I0
tbS'show'
tRp347
I31717
tp348
a(g2
(g3
(S'S5'
I0
I1
tRp349
(I3
S'|'
NNNI5
I1
I0
tbS'chang'
tRp350
I31689
tp351
a(g2
(g3
(S'S4'
I0
I1
tRp352
(I3
S'|'
NNNI4
I1
I0
tbS'made'
tRp353
I31446
tp354
a(g2
(g3
(S'S5'
I0
I1
tRp355
(I3
S'|'
NNNI5
I1
I0
tbS'posit'
tRp356
I31407
tp357
a(g2
(g3
(S'S5'
I0
I1
tRp358
(I3
S'|'
NNNI5
I1
I0
tbS'agree'
tRp359
I30866
tp360
a(g2
(g3
(S'S4'
I0
I1
tRp361
(I3
S'|'
NNNI4
I1
I0
tbS'good'
tRp362
I30789
tp363
a(g2
(g3
(S'S5'
I0
I1
tRp364
(I3
S'|'
NNNI5
I1
I0
tbS'activ'
tRp365
I30685
tp366
a(g2
(g3
(S'S4'
I0
I1
tRp367
(I3
S'|'
NNNI4
I1
I0
tbS'july'
tRp368
I30529
tp369
a(g2
(g3
(S'S4'
I0
I1
tRp370
(I3
S'|'
NNNI4
I1
I0
tbS'york'
tRp371
I30470
tp372
a(g2
(g3
(S'S3'
I0
I1
tRp373
(I3
S'|'
NNNI3
I1
I0
tbS'pct'
tRp374
I30429
tp375
a(g2
(g3
(S'S5'
I0
I1
tRp376
(I3
S'|'
NNNI5
I1
I0
tbS'world'
tRp377
I30302
tp378
a(g2
(g3
(S'S3'
I0
I1
tRp379
(I3
S'|'
NNNI3
I1
I0
tbS'bid'
tRp380
I30056
tp381
a(g2
(g3
(S'S4'
I0
I1
tRp382
(I3
S'|'
NNNI4
I1
I0
tbS'part'
tRp383
I29307
tp384
a(g2
(g3
(S'S4'
I0
I1
tRp385
(I3
S'|'
NNNI4
I1
I0
tbS'play'
tRp386
I29228
tp387
a(g2
(g3
(S'S5'
I0
I1
tRp388
(I3
S'|'
NNNI5
I1
I0
tbS'march'
tRp389
I29107
tp390
a(g2
(g3
(S'S5'
I0
I1
tRp391
(I3
S'|'
NNNI5
I1
I0
tbS'volum'
tRp392
I29088
tp393
a(g2
(g3
(S'S6'
I0
I1
tRp394
(I3
S'|'
NNNI6
I1
I0
tbS'servic'
tRp395
I28589
tp396
a(g2
(g3
(S'S6'
I0
I1
tRp397
(I3
S'|'
NNNI6
I1
I0
tbS'commit'
tRp398
I28470
tp399
a(g2
(g3
(S'S6'
I0
I1
tRp400
(I3
S'|'
NNNI6
I1
I0
tbS'compar'
tRp401
I28456
tp402
a(g2
(g3
(S'S4'
I0
I1
tRp403
(I3
S'|'
NNNI4
I1
I0
tbS'fund'
tRp404
I28419
tp405
a(g2
(g3
(S'S3'
I0
I1
tRp406
(I3
S'|'
NNNI3
I1
I0
tbS'gmt'
tRp407
I28414
tp408
a(g2
(g3
(S'S4'
I0
I1
tRp409
(I3
S'|'
NNNI4
I1
I0
tbS'aver'
tRp410
I28330
tp411
a(g2
(g3
(S'S5'
I0
I1
tRp412
(I3
S'|'
NNNI5
I1
I0
tbS'april'
tRp413
I27806
tp414
a(g2
(g3
(S'S3'
I0
I1
tRp415
(I3
S'|'
NNNI3
I1
I0
tbS'big'
tRp416
I27499
tp417
a(g2
(g3
(S'S8'
I0
I1
tRp418
(I3
S'|'
NNNI8
I1
I0
tbS'contract'
tRp419
I27213
tp420
a(g2
(g3
(S'S4'
I0
I1
tRp421
(I3
S'|'
NNNI4
I1
I0
tbS'rang'
tRp422
I27179
tp423
a(g2
(g3
(S'S3'
I0
I1
tRp424
(I3
S'|'
NNNI3
I1
I0
tbS'ton'
tRp425
I27147
tp426
a(g2
(g3
(S'S4'
I0
I1
tRp427
(I3
S'|'
NNNI4
I1
I0
tbS'brok'
tRp428
I27054
tp429
a(g2
(g3
(S'S4'
I0
I1
tRp430
(I3
S'|'
NNNI4
I1
I0
tbS'work'
tRp431
I26922
tp432
a(g2
(g3
(S'S7'
I0
I1
tRp433
(I3
S'|'
NNNI7
I1
I0
tbS'septemb'
tRp434
I26605
tp435
a(g2
(g3
(S'S8'
I0
I1
tRp436
(I3
S'|'
NNNI8
I1
I0
tbS'european'
tRp437
I26541
tp438
a(g2
(g3
(S'S6'
I0
I1
tRp439
(I3
S'|'
NNNI6
I1
I0
tbS'decemb'
tRp440
I26379
tp441
a(g2
(g3
(S'S5'
I0
I1
tRp442
(I3
S'|'
NNNI5
I1
I0
tbS'polic'
tRp443
I26269
tp444
a(g2
(g3
(S'S5'
I0
I1
tRp445
(I3
S'|'
NNNI5
I1
I0
tbS'local'
tRp446
I26148
tp447
a(g2
(g3
(S'S7'
I0
I1
tRp448
(I3
S'|'
NNNI7
I1
I0
tbS'develop'
tRp449
I26104
tp450
a(g2
(g3
(S'S4'
I0
I1
tRp451
(I3
S'|'
NNNI4
I1
I0
tbS'weak'
tRp452
I25888
tp453
a(g2
(g3
(S'S5'
I0
I1
tRp454
(I3
S'|'
NNNI5
I1
I0
tbS'south'
tRp455
I25876
tp456
a(g2
(g3
(S'S3'
I0
I1
tRp457
(I3
S'|'
NNNI3
I1
I0
tbS'run'
tRp458
I25811
tp459
a(g2
(g3
(S'S4'
I0
I1
tRp460
(I3
S'|'
NNNI4
I1
I0
tbS'mark'
tRp461
I25777
tp462
a(g2
(g3
(S'S5'
I0
I1
tRp463
(I3
S'|'
NNNI5
I1
I0
tbS'decid'
tRp464
I25733
tp465
a(g2
(g3
(S'S5'
I0
I1
tRp466
(I3
S'|'
NNNI5
I1
I0
tbS'chief'
tRp467
I25657
tp468
a(g2
(g3
(S'S3'
I0
I1
tRp469
(I3
S'|'
NNNI3
I1
I0
tbS'off'
tRp470
I25645
tp471
a(g2
(g3
(S'S6'
I0
I1
tRp472
(I3
S'|'
NNNI6
I1
I0
tbS'americ'
tRp473
I25368
tp474
a(g2
(g3
(S'S3'
I0
I1
tRp475
(I3
S'|'
NNNI3
I1
I0
tbS'oil'
tRp476
I25341
tp477
a(g2
(g3
(S'S5'
I0
I1
tRp478
(I3
S'|'
NNNI5
I1
I0
tbS'suppl'
tRp479
I25260
tp480
a(g2
(g3
(S'S4'
I0
I1
tRp481
(I3
S'|'
NNNI4
I1
I0
tbS'numb'
tRp482
I24974
tp483
a(g2
(g3
(S'S5'
I0
I1
tRp484
(I3
S'|'
NNNI5
I1
I0
tbS'begin'
tRp485
I24946
tp486
a(g2
(g3
(S'S7'
I0
I1
tRp487
(I3
S'|'
NNNI7
I1
I0
tbS'current'
tRp488
I24940
tp489
a(g2
(g3
(S'S4'
I0
I1
tRp490
(I3
S'|'
NNNI4
I1
I0
tbS'talk'
tRp491
I24811
tp492
a(g2
(g3
(S'S4'
I0
I1
tRp493
(I3
S'|'
NNNI4
I1
I0
tbS'sign'
tRp494
I24587
tp495
a(g2
(g3
(S'S4'
I0
I1
tRp496
(I3
S'|'
NNNI4
I1
I0
tbS'head'
tRp497
I24578
tp498
a(g2
(g3
(S'S5'
I0
I1
tRp499
(I3
S'|'
NNNI5
I1
I0
tbS'ahead'
tRp500
I24541
tp501
a(g2
(g3
(S'S4'
I0
I1
tRp502
(I3
S'|'
NNNI4
I1
I0
tbS'prim'
tRp503
I24389
tp504
a(g2
(g3
(S'S6'
I0
I1
tRp505
(I3
S'|'
NNNI6
I1
I0
tbS'profit'
tRp506
I24212
tp507
a(g2
(g3
(S'S6'
I0
I1
tRp508
(I3
S'|'
NNNI6
I1
I0
tbS'import'
tRp509
I24201
tp510
a(g2
(g3
(S'S5'
I0
I1
tRp511
(I3
S'|'
NNNI5
I1
I0
tbS'money'
tRp512
I24149
tp513
a(g2
(g3
(S'S3'
I0
I1
tRp514
(I3
S'|'
NNNI3
I1
I0
tbS'put'
tRp515
I24119
tp516
a(g2
(g3
(S'S5'
I0
I1
tRp517
(I3
S'|'
NNNI5
I1
I0
tbS'today'
tRp518
I24097
tp519
a(g2
(g3
(S'S5'
I0
I1
tRp520
(I3
S'|'
NNNI5
I1
I0
tbS'figur'
tRp521
I24070
tp522
a(g2
(g3
(S'S4'
I0
I1
tRp523
(I3
S'|'
NNNI4
I1
I0
tbS'city'
tRp524
I23759
tp525
a(g2
(g3
(S'S4'
I0
I1
tRp526
(I3
S'|'
NNNI4
I1
I0
tbS'quot'
tRp527
I23754
tp528
a(g2
(g3
(S'S4'
I0
I1
tRp529
(I3
S'|'
NNNI4
I1
I0
tbS'held'
tRp530
I23732
tp531
a(g2
(g3
(S'S5'
I0
I1
tRp532
(I3
S'|'
NNNI5
I1
I0
tbS'quart'
tRp533
I23722
tp534
a(g2
(g3
(S'S6'
I0
I1
tRp535
(I3
S'|'
NNNI6
I1
I0
tbS'public'
tRp536
I23697
tp537
a(g2
(g3
(S'S5'
I0
I1
tRp538
(I3
S'|'
NNNI5
I1
I0
tbS'octob'
tRp539
I23685
tp540
a(g2
(g3
(S'S6'
I0
I1
tRp541
(I3
S'|'
NNNI6
I1
I0
tbS'export'
tRp542
I23664
tp543
a(g2
(g3
(S'S3'
I0
I1
tRp544
(I3
S'|'
NNNI3
I1
I0
tbS'top'
tRp545
I23513
tp546
a(g2
(g3
(S'S3'
I0
I1
tRp547
(I3
S'|'
NNNI3
I1
I0
tbS'ago'
tRp548
I23392
tp549
a(g2
(g3
(S'S5'
I0
I1
tRp550
(I3
S'|'
NNNI5
I1
I0
tbS'offer'
tRp551
I23231
tp552
a(g2
(g3
(S'S4'
I0
I1
tRp553
(I3
S'|'
NNNI4
I1
I0
tbS'list'
tRp554
I23189
tp555
a(g2
(g3
(S'S6'
I0
I1
tRp556
(I3
S'|'
NNNI6
I1
I0
tbS'declin'
tRp557
I23059
tp558
a(g2
(g3
(S'S5'
I0
I1
tRp559
(I3
S'|'
NNNI5
I1
I0
tbS'final'
tRp560
I23034
tp561
a(g2
(g3
(S'S5'
I0
I1
tRp562
(I3
S'|'
NNNI5
I1
I0
tbS'deliv'
tRp563
I22966
tp564
a(g2
(g3
(S'S4'
I0
I1
tRp565
(I3
S'|'
NNNI4
I1
I0
tbS'janu'
tRp566
I22918
tp567
a(g2
(g3
(S'S4'
I0
I1
tRp568
(I3
S'|'
NNNI4
I1
I0
tbS'take'
tRp569
I22879
tp570
a(g2
(g3
(S'S5'
I0
I1
tRp571
(I3
S'|'
NNNI5
I1
I0
tbS'yield'
tRp572
I22852
tp573
a(g2
(g3
(S'S5'
I0
I1
tRp574
(I3
S'|'
NNNI5
I1
I0
tbS'sourc'
tRp575
I22846
tp576
a(g2
(g3
(S'S4'
I0
I1
tRp577
(I3
S'|'
NNNI4
I1
I0
tbS'data'
tRp578
I22560
tp579
a(g2
(g3
(S'S3'
I0
I1
tRp580
(I3
S'|'
NNNI3
I1
I0
tbS'key'
tRp581
I22493
tp582
a(g2
(g3
(S'S4'
I0
I1
tRp583
(I3
S'|'
NNNI4
I1
I0
tbS'hous'
tRp584
I22463
tp585
a(g2
(g3
(S'S5'
I0
I1
tRp586
(I3
S'|'
NNNI5
I1
I0
tbS'board'
tRp587
I22316
tp588
a(g2
(g3
(S'S4'
I0
I1
tRp589
(I3
S'|'
NNNI4
I1
I0
tbS'forc'
tRp590
I22283
tp591
a(g2
(g3
(S'S6'
I0
I1
tRp592
(I3
S'|'
NNNI6
I1
I0
tbS'growth'
tRp593
I22251
tp594
a(g2
(g3
(S'S3'
I0
I1
tRp595
(I3
S'|'
NNNI3
I1
I0
tbS'own'
tRp596
I22139
tp597
a(g2
(g3
(S'S3'
I0
I1
tRp598
(I3
S'|'
NNNI3
I1
I0
tbS'win'
tRp599
I22071
tp600
a(g2
(g3
(S'S4'
I0
I1
tRp601
(I3
S'|'
NNNI4
I1
I0
tbS'half'
tRp602
I21986
tp603
a(g2
(g3
(S'S6'
I0
I1
tRp604
(I3
S'|'
NNNI6
I1
I0
tbS'novemb'
tRp605
I21978
tp606
a(g2
(g3
(S'S6'
I0
I1
tRp607
(I3
S'|'
NNNI6
I1
I0
tbS'period'
tRp608
I21807
tp609
a(g2
(g3
(S'S4'
I0
I1
tRp610
(I3
S'|'
NNNI4
I1
I0
tbS'rais'
tRp611
I21798
tp612
a(g2
(g3
(S'S4'
I0
I1
tRp613
(I3
S'|'
NNNI4
I1
I0
tbS'desk'
tRp614
I21709
tp615
a(g2
(g3
(S'S3'
I0
I1
tRp616
(I3
S'|'
NNNI3
I1
I0
tbS'won'
tRp617
I21583
tp618
a(g2
(g3
(S'S5'
I0
I1
tRp619
(I3
S'|'
NNNI5
I1
I0
tbS'techn'
tRp620
I21568
tp621
a(g2
(g3
(S'S4'
I0
I1
tRp622
(I3
S'|'
NNNI4
I1
I0
tbS'cash'
tRp623
I21560
tp624
a(g2
(g3
(S'S3'
I0
I1
tRp625
(I3
S'|'
NNNI3
I1
I0
tbS'cut'
tRp626
I21326
tp627
a(g2
(g3
(S'S6'
I0
I1
tRp628
(I3
S'|'
NNNI6
I1
I0
tbS'system'
tRp629
I21301
tp630
a(g2
(g3
(S'S4'
I0
I1
tRp631
(I3
S'|'
NNNI4
I1
I0
tbS'basi'
tRp632
I21149
tp633
a(g2
(g3
(S'S4'
I0
I1
tRp634
(I3
S'|'
NNNI4
I1
I0
tbS'cost'
tRp635
I21090
tp636
a(g2
(g3
(S'S5'
I0
I1
tRp637
(I3
S'|'
NNNI5
I1
I0
tbS'japan'
tRp638
I20961
tp639
a(g2
(g3
(S'S6'
I0
I1
tRp640
(I3
S'|'
NNNI6
I1
I0
tbS'slight'
tRp641
I20910
tp642
a(g2
(g3
(S'S8'
I0
I1
tRp643
(I3
S'|'
NNNI8
I1
I0
tbS'forecast'
tRp644
I20904
tp645
a(g2
(g3
(S'S7'
I0
I1
tRp646
(I3
S'|'
NNNI7
I1
I0
tbS'estimat'
tRp647
I20898
tp648
a(g2
(g3
(S'S5'
I0
I1
tRp649
(I3
S'|'
NNNI5
I1
I0
tbS'stead'
tRp650
I20893
tp651
a(g2
(g3
(S'S6'
I0
I1
tRp652
(I3
S'|'
NNNI6
I1
I0
tbS'record'
tRp653
I20861
tp654
a(g2
(g3
(S'S6'
I0
I1
tRp655
(I3
S'|'
NNNI6
I1
I0
tbS'august'
tRp656
I20783
tp657
a(g2
(g3
(S'S6'
I0
I1
tRp658
(I3
S'|'
NNNI6
I1
I0
tbS'sunday'
tRp659
I20727
tp660
a(g2
(g3
(S'S4'
I0
I1
tRp661
(I3
S'|'
NNNI4
I1
I0
tbS'rule'
tRp662
I20716
tp663
a(g2
(g3
(S'S6'
I0
I1
tRp664
(I3
S'|'
NNNI6
I1
I0
tbS'privat'
tRp665
I20713
tp666
a(g2
(g3
(S'S7'
I0
I1
tRp667
(I3
S'|'
NNNI7
I1
I0
tbS'unchang'
tRp668
I20499
tp669
a(g2
(g3
(S'S4'
I0
I1
tRp670
(I3
S'|'
NNNI4
I1
I0
tbS'line'
tRp671
I20375
tp672
a(g2
(g3
(S'S5'
I0
I1
tRp673
(I3
S'|'
NNNI5
I1
I0
tbS'agent'
tRp674
I20250
tp675
a(g2
(g3
(S'S3'
I0
I1
tRp676
(I3
S'|'
NNNI3
I1
I0
tbS'tax'
tRp677
I20238
tp678
a(g2
(g3
(S'S4'
I0
I1
tRp679
(I3
S'|'
NNNI4
I1
I0
tbS'home'
tRp680
I20162
tp681
a(g2
(g3
(S'S6'
I0
I1
tRp682
(I3
S'|'
NNNI6
I1
I0
tbS'reserv'
tRp683
I20150
tp684
a(g2
(g3
(S'S4'
I0
I1
tRp685
(I3
S'|'
NNNI4
I1
I0
tbS'drop'
tRp686
I20146
tp687
a(g2
(g3
(S'S4'
I0
I1
tRp688
(I3
S'|'
NNNI4
I1
I0
tbS'area'
tRp689
I20105
tp690
a(g2
(g3
(S'S7'
I0
I1
tRp691
(I3
S'|'
NNNI7
I1
I0
tbS'session'
tRp692
I20095
tp693
a(g2
(g3
(S'S5'
I0
I1
tRp694
(I3
S'|'
NNNI5
I1
I0
tbS'reach'
tRp695
I19994
tp696
a(g2
(g3
(S'S3'
I0
I1
tRp697
(I3
S'|'
NNNI3
I1
I0
tbS'hit'
tRp698
I19968
tp699
a(g2
(g3
(S'S5'
I0
I1
tRp700
(I3
S'|'
NNNI5
I1
I0
tbS'elect'
tRp701
I19949
tp702
a(g2
(g3
(S'S6'
I0
I1
tRp703
(I3
S'|'
NNNI6
I1
I0
tbS'annual'
tRp704
I19901
tp705
a(g2
(g3
(S'S7'
I0
I1
tRp706
(I3
S'|'
NNNI7
I1
I0
tbS'treasur'
tRp707
I19804
tp708
a(g2
(g3
(S'S4'
I0
I1
tRp709
(I3
S'|'
NNNI4
I1
I0
tbS'plac'
tRp710
I19782
tp711
a(g2
(g3
(S'S6'
I0
I1
tRp712
(I3
S'|'
NNNI6
I1
I0
tbS'releas'
tRp713
I19685
tp714
a(g2
(g3
(S'S4'
I0
I1
tRp715
(I3
S'|'
NNNI4
I1
I0
tbS'sect'
tRp716
I19602
tp717
a(g2
(g3
(S'S3'
I0
I1
tRp718
(I3
S'|'
NNNI3
I1
I0
tbS'pay'
tRp719
I19577
tp720
a(g2
(g3
(S'S5'
I0
I1
tRp721
(I3
S'|'
NNNI5
I1
I0
tbS'franc'
tRp722
I19515
tp723
a(g2
(g3
(S'S5'
I0
I1
tRp724
(I3
S'|'
NNNI5
I1
I0
tbS'party'
tRp725
I19481
tp726
a(g2
(g3
(S'S6'
I0
I1
tRp727
(I3
S'|'
NNNI6
I1
I0
tbS'region'
tRp728
I19437
tp729
a(g2
(g3
(S'S8'
I0
I1
tRp730
(I3
S'|'
NNNI8
I1
I0
tbS'saturday'
tRp731
I19186
tp732
a(g2
(g3
(S'S4'
I0
I1
tRp733
(I3
S'|'
NNNI4
I1
I0
tbS'memb'
tRp734
I19159
tp735
a(g2
(g3
(S'S5'
I0
I1
tRp736
(I3
S'|'
NNNI5
I1
I0
tbS'matur'
tRp737
I19155
tp738
a(g2
(g3
(S'S6'
I0
I1
tRp739
(I3
S'|'
NNNI6
I1
I0
tbS'execut'
tRp740
I19115
tp741
a(g2
(g3
(S'S4'
I0
I1
tRp742
(I3
S'|'
NNNI4
I1
I0
tbS'post'
tRp743
I19088
tp744
a(g2
(g3
(S'S3'
I0
I1
tRp745
(I3
S'|'
NNNI3
I1
I0
tbS'net'
tRp746
I19035
tp747
a(g2
(g3
(S'S3'
I0
I1
tRp748
(I3
S'|'
NNNI3
I1
I0
tbS'ord'
tRp749
I18994
tp750
a(g2
(g3
(S'S4'
I0
I1
tRp751
(I3
S'|'
NNNI4
I1
I0
tbS'bill'
tRp752
I18952
tp753
a(g2
(g3
(S'S6'
I0
I1
tRp754
(I3
S'|'
NNNI6
I1
I0
tbS'consum'
tRp755
I18920
tp756
a(g2
(g3
(S'S3'
I0
I1
tRp757
(I3
S'|'
NNNI3
I1
I0
tbS'pow'
tRp758
I18912
tp759
a(g2
(g3
(S'S6'
I0
I1
tRp760
(I3
S'|'
NNNI6
I1
I0
tbS'amount'
tRp761
I18812
tp762
a(g2
(g3
(S'S6'
I0
I1
tRp763
(I3
S'|'
NNNI6
I1
I0
tbS'domest'
tRp764
I18809
tp765
a(g2
(g3
(S'S7'
I0
I1
tRp766
(I3
S'|'
NNNI7
I1
I0
tbS'control'
tRp767
I18785
tp768
a(g2
(g3
(S'S7'
I0
I1
tRp769
(I3
S'|'
NNNI7
I1
I0
tbS'pressur'
tRp770
I18728
tp771
a(g2
(g3
(S'S3'
I0
I1
tRp772
(I3
S'|'
NNNI3
I1
I0
tbS'led'
tRp773
I18707
tp774
a(g2
(g3
(S'S3'
I0
I1
tRp775
(I3
S'|'
NNNI3
I1
I0
tbS'mln'
tRp776
I18674
tp777
a(g2
(g3
(S'S3'
I0
I1
tRp778
(I3
S'|'
NNNI3
I1
I0
tbS'lot'
tRp779
I18668
tp780
a(g2
(g3
(S'S4'
I0
I1
tRp781
(I3
S'|'
NNNI4
I1
I0
tbS'give'
tRp782
I18653
tp783
a(g2
(g3
(S'S4'
I0
I1
tRp784
(I3
S'|'
NNNI4
I1
I0
tbS'fact'
tRp785
I18628
tp786
a(g2
(g3
(S'S4'
I0
I1
tRp787
(I3
S'|'
NNNI4
I1
I0
tbS'sold'
tRp788
I18450
tp789
a(g2
(g3
(S'S4'
I0
I1
tRp790
(I3
S'|'
NNNI4
I1
I0
tbS'loss'
tRp791
I18375
tp792
a(g2
(g3
(S'S5'
I0
I1
tRp793
(I3
S'|'
NNNI5
I1
I0
tbS'sharp'
tRp794
I18358
tp795
a(g2
(g3
(S'S6'
I0
I1
tRp796
(I3
S'|'
NNNI6
I1
I0
tbS'chicag'
tRp797
I18329
tp798
a(g2
(g3
(S'S6'
I0
I1
tRp799
(I3
S'|'
NNNI6
I1
I0
tbS'return'
tRp800
I18188
tp801
a(g2
(g3
(S'S7'
I0
I1
tRp802
(I3
S'|'
NNNI7
I1
I0
tbS'comment'
tRp803
I18091
tp804
a(g2
(g3
(S'S6'
I0
I1
tRp805
(I3
S'|'
NNNI6
I1
I0
tbS'commun'
tRp806
I18058
tp807
a(g2
(g3
(S'S4'
I0
I1
tRp808
(I3
S'|'
NNNI4
I1
I0
tbS'past'
tRp809
I17911
tp810
a(g2
(g3
(S'S5'
I0
I1
tRp811
(I3
S'|'
NNNI5
I1
I0
tbS'limit'
tRp812
I17854
tp813
a(g2
(g3
(S'S7'
I0
I1
tRp814
(I3
S'|'
NNNI7
I1
I0
tbS'austral'
tRp815
I17779
tp816
a(g2
(g3
(S'S6'
I0
I1
tRp817
(I3
S'|'
NNNI6
I1
I0
tbS'chairm'
tRp818
I17763
tp819
a(g2
(g3
(S'S6'
I0
I1
tRp820
(I3
S'|'
NNNI6
I1
I0
tbS'effect'
tRp821
I17739
tp822
a(g2
(g3
(S'S5'
I0
I1
tRp823
(I3
S'|'
NNNI5
I1
I0
tbS'polit'
tRp824
I17699
tp825
a(g2
(g3
(S'S6'
I0
I1
tRp826
(I3
S'|'
NNNI6
I1
I0
tbS'provid'
tRp827
I17687
tp828
a(g2
(g3
(S'S7'
I0
I1
tRp829
(I3
S'|'
NNNI7
I1
I0
tbS'account'
tRp830
I17621
tp831
a(g2
(g3
(S'S4'
I0
I1
tRp832
(I3
S'|'
NNNI4
I1
I0
tbS'main'
tRp833
I17613
tp834
a(g2
(g3
(S'S5'
I0
I1
tRp835
(I3
S'|'
NNNI5
I1
I0
tbS'small'
tRp836
I17610
tp837
a(g2
(g3
(S'S5'
I0
I1
tRp838
(I3
S'|'
NNNI5
I1
I0
tbS'europ'
tRp839
I17605
tp840
a(g2
(g3
(S'S7'
I0
I1
tRp841
(I3
S'|'
NNNI7
I1
I0
tbS'spokesm'
tRp842
I17529
tp843
a(g2
(g3
(S'S7'
I0
I1
tRp844
(I3
S'|'
NNNI7
I1
I0
tbS'currenc'
tRp845
I17518
tp846
a(g2
(g3
(S'S4'
I0
I1
tRp847
(I3
S'|'
NNNI4
I1
I0
tbS'hope'
tRp848
I17501
tp849
a(g2
(g3
(S'S4'
I0
I1
tRp850
(I3
S'|'
NNNI4
I1
I0
tbS'grow'
tRp851
I17447
tp852
a(g2
(g3
(S'S5'
I0
I1
tRp853
(I3
S'|'
NNNI5
I1
I0
tbS'relat'
tRp854
I17415
tp855
a(g2
(g3
(S'S4'
I0
I1
tRp856
(I3
S'|'
NNNI4
I1
I0
tbS'left'
tRp857
I17277
tp858
a(g2
(g3
(S'S4'
I0
I1
tRp859
(I3
S'|'
NNNI4
I1
I0
tbS'morn'
tRp860
I17218
tp861
a(g2
(g3
(S'S5'
I0
I1
tRp862
(I3
S'|'
NNNI5
I1
I0
tbS'build'
tRp863
I17200
tp864
a(g2
(g3
(S'S4'
I0
I1
tRp865
(I3
S'|'
NNNI4
I1
I0
tbS'lost'
tRp866
I17123
tp867
a(g2
(g3
(S'S4'
I0
I1
tRp868
(I3
S'|'
NNNI4
I1
I0
tbS'form'
tRp869
I17123
tp870
a(g2
(g3
(S'S6'
I0
I1
tRp871
(I3
S'|'
NNNI6
I1
I0
tbS'compet'
tRp872
I17071
tp873
a(g2
(g3
(S'S7'
I0
I1
tRp874
(I3
S'|'
NNNI7
I1
I0
tbS'commerc'
tRp875
I16965
tp876
a(g2
(g3
(S'S6'
I0
I1
tRp877
(I3
S'|'
NNNI6
I1
I0
tbS'improv'
tRp878
I16849
tp879
a(g2
(g3
(S'S4'
I0
I1
tRp880
(I3
S'|'
NNNI4
I1
I0
tbS'full'
tRp881
I16826
tp882
a(g2
(g3
(S'S5'
I0
I1
tRp883
(I3
S'|'
NNNI5
I1
I0
tbS'daily'
tRp884
I16824
tp885
a(g2
(g3
(S'S6'
I0
I1
tRp886
(I3
S'|'
NNNI6
I1
I0
tbS'credit'
tRp887
I16821
tp888
a(g2
(g3
(S'S4'
I0
I1
tRp889
(I3
S'|'
NNNI4
I1
I0
tbS'debt'
tRp890
I16735
tp891
a(g2
(g3
(S'S5'
I0
I1
tRp892
(I3
S'|'
NNNI5
I1
I0
tbS'union'
tRp893
I16613
tp894
a(g2
(g3
(S'S4'
I0
I1
tRp895
(I3
S'|'
NNNI4
I1
I0
tbS'brit'
tRp896
I16447
tp897
a(g2
(g3
(S'S6'
I0
I1
tRp898
(I3
S'|'
NNNI6
I1
I0
tbS'author'
tRp899
I16333
tp900
a(g2
(g3
(S'S8'
I0
I1
tRp901
(I3
S'|'
NNNI8
I1
I0
tbS'institut'
tRp902
I16238
tp903
a(g2
(g3
(S'S6'
I0
I1
tRp904
(I3
S'|'
NNNI6
I1
I0
tbS'receiv'
tRp905
I16196
tp906
a(g2
(g3
(S'S7'
I0
I1
tRp907
(I3
S'|'
NNNI7
I1
I0
tbS'complet'
tRp908
I16123
tp909
a(g2
(g3
(S'S5'
I0
I1
tRp910
(I3
S'|'
NNNI5
I1
I0
tbS'boost'
tRp911
I16037
tp912
a(g2
(g3
(S'S4'
I0
I1
tRp913
(I3
S'|'
NNNI4
I1
I0
tbS'germ'
tRp914
I15998
tp915
a(g2
(g3
(S'S6'
I0
I1
tRp916
(I3
S'|'
NNNI6
I1
I0
tbS'corpor'
tRp917
I15945
tp918
a(g2
(g3
(S'S4'
I0
I1
tRp919
(I3
S'|'
NNNI4
I1
I0
tbS'sery'
tRp920
I15896
tp921
a(g2
(g3
(S'S6'
I0
I1
tRp922
(I3
S'|'
NNNI6
I1
I0
tbS'acquir'
tRp923
I15880
tp924
a(g2
(g3
(S'S4'
I0
I1
tRp925
(I3
S'|'
NNNI4
I1
I0
tbS'east'
tRp926
I15873
tp927
a(g2
(g3
(S'S5'
I0
I1
tRp928
(I3
S'|'
NNNI5
I1
I0
tbS'north'
tRp929
I15828
tp930
a(g2
(g3
(S'S4'
I0
I1
tRp931
(I3
S'|'
NNNI4
I1
I0
tbS'turn'
tRp932
I15767
tp933
a(g2
(g3
(S'S7'
I0
I1
tRp934
(I3
S'|'
NNNI7
I1
I0
tbS'concern'
tRp935
I15655
tp936
a(g2
(g3
(S'S4'
I0
I1
tRp937
(I3
S'|'
NNNI4
I1
I0
tbS'hand'
tRp938
I15541
tp939
a(g2
(g3
(S'S7'
I0
I1
tRp940
(I3
S'|'
NNNI7
I1
I0
tbS'indicat'
tRp941
I15515
tp942
a(g2
(g3
(S'S7'
I0
I1
tRp943
(I3
S'|'
NNNI7
I1
I0
tbS'problem'
tRp944
I15503
tp945
a(g2
(g3
(S'S6'
I0
I1
tRp946
(I3
S'|'
NNNI6
I1
I0
tbS'turnov'
tRp947
I15417
tp948
a(g2
(g3
(S'S6'
I0
I1
tRp949
(I3
S'|'
NNNI6
I1
I0
tbS'detail'
tRp950
I15255
tp951
a(g2
(g3
(S'S4'
I0
I1
tRp952
(I3
S'|'
NNNI4
I1
I0
tbS'chin'
tRp953
I15252
tp954
a(g2
(g3
(S'S5'
I0
I1
tRp955
(I3
S'|'
NNNI5
I1
I0
tbS'carry'
tRp956
I15238
tp957
a(g2
(g3
(S'S4'
I0
I1
tRp958
(I3
S'|'
NNNI4
I1
I0
tbS'earn'
tRp959
I15132
tp960
a(g2
(g3
(S'S4'
I0
I1
tRp961
(I3
S'|'
NNNI4
I1
I0
tbS'ship'
tRp962
I15103
tp963
a(g2
(g3
(S'S6'
I0
I1
tRp964
(I3
S'|'
NNNI6
I1
I0
tbS'approv'
tRp965
I15068
tp966
a(g2
(g3
(S'S4'
I0
I1
tRp967
(I3
S'|'
NNNI4
I1
I0
tbS'face'
tRp968
I15066
tp969
a(g2
(g3
(S'S4'
I0
I1
tRp970
(I3
S'|'
NNNI4
I1
I0
tbS'hour'
tRp971
I15052
tp972
a(g2
(g3
(S'S6'
I0
I1
tRp973
(I3
S'|'
NNNI6
I1
I0
tbS'confer'
tRp974
I15030
tp975
a(g2
(g3
(S'S5'
I0
I1
tRp976
(I3
S'|'
NNNI5
I1
I0
tbS'feder'
tRp977
I15017
tp978
a(g2
(g3
(S'S4'
I0
I1
tRp979
(I3
S'|'
NNNI4
I1
I0
tbS'slow'
tRp980
I14984
tp981
a(g2
(g3
(S'S4'
I0
I1
tRp982
(I3
S'|'
NNNI4
I1
I0
tbS'push'
tRp983
I14959
tp984
a(g2
(g3
(S'S5'
I0
I1
tRp985
(I3
S'|'
NNNI5
I1
I0
tbS'rally'
tRp986
I14933
tp987
a(g2
(g3
(S'S6'
I0
I1
tRp988
(I3
S'|'
NNNI6
I1
I0
tbS'inflat'
tRp989
I14828
tp990
a(g2
(g3
(S'S3'
I0
I1
tRp991
(I3
S'|'
NNNI3
I1
I0
tbS'don'
tRp992
I14792
tp993
a(g2
(g3
(S'S8'
I0
I1
tRp994
(I3
S'|'
NNNI8
I1
I0
tbS'strength'
tRp995
I14788
tp996
a(g2
(g3
(S'S7'
I0
I1
tRp997
(I3
S'|'
NNNI7
I1
I0
tbS'purchas'
tRp998
I14757
tp999
a(g2
(g3
(S'S4'
I0
I1
tRp1000
(I3
S'|'
NNNI4
I1
I0
tbS'west'
tRp1001
I14744
tp1002
a(g2
(g3
(S'S4'
I0
I1
tRp1003
(I3
S'|'
NNNI4
I1
I0
tbS'stak'
tRp1004
I14705
tp1005
a(g2
(g3
(S'S6'
I0
I1
tRp1006
(I3
S'|'
NNNI6
I1
I0
tbS'season'
tRp1007
I14697
tp1008
a(g2
(g3
(S'S5'
I0
I1
tRp1009
(I3
S'|'
NNNI5
I1
I0
tbS'febru'
tRp1010
I14692
tp1011
a(g2
(g3
(S'S5'
I0
I1
tRp1012
(I3
S'|'
NNNI5
I1
I0
tbS'match'
tRp1013
I14638
tp1014
a(g2
(g3
(S'S5'
I0
I1
tRp1015
(I3
S'|'
NNNI5
I1
I0
tbS'clear'
tRp1016
I14623
tp1017
a(g2
(g3
(S'S6'
I0
I1
tRp1018
(I3
S'|'
NNNI6
I1
I0
tbS'launch'
tRp1019
I14570
tp1020
a(g2
(g3
(S'S5'
I0
I1
tRp1021
(I3
S'|'
NNNI5
I1
I0
tbS'settl'
tRp1022
I14526
tp1023
a(g2
(g3
(S'S5'
I0
I1
tRp1024
(I3
S'|'
NNNI5
I1
I0
tbS'light'
tRp1025
I14504
tp1026
a(g2
(g3
(S'S4'
I0
I1
tRp1027
(I3
S'|'
NNNI4
I1
I0
tbS'side'
tRp1028
I14485
tp1029
a(g2
(g3
(S'S6'
I0
I1
tRp1030
(I3
S'|'
NNNI6
I1
I0
tbS'street'
tRp1031
I14473
tp1032
a(g2
(g3
(S'S3'
I0
I1
tRp1033
(I3
S'|'
NNNI3
I1
I0
tbS'war'
tRp1034
I14427
tp1035
a(g2
(g3
(S'S5'
I0
I1
tRp1036
(I3
S'|'
NNNI5
I1
I0
tbS'reduc'
tRp1037
I14413
tp1038
a(g2
(g3
(S'S6'
I0
I1
tRp1039
(I3
S'|'
NNNI6
I1
I0
tbS'senior'
tRp1040
I14394
tp1041
a(g2
(g3
(S'S6'
I0
I1
tRp1042
(I3
S'|'
NNNI6
I1
I0
tbS'balanc'
tRp1043
I14368
tp1044
a(g2
(g3
(S'S5'
I0
I1
tRp1045
(I3
S'|'
NNNI5
I1
I0
tbS'afric'
tRp1046
I14319
tp1047
a(g2
(g3
(S'S6'
I0
I1
tRp1048
(I3
S'|'
NNNI6
I1
I0
tbS'coupon'
tRp1049
I14268
tp1050
a(g2
(g3
(S'S7'
I0
I1
tRp1051
(I3
S'|'
NNNI7
I1
I0
tbS'program'
tRp1052
I14213
tp1053
a(g2
(g3
(S'S6'
I0
I1
tRp1054
(I3
S'|'
NNNI6
I1
I0
tbS'french'
tRp1055
I14126
tp1056
a(g2
(g3
(S'S4'
I0
I1
tRp1057
(I3
S'|'
NNNI4
I1
I0
tbS'help'
tRp1058
I14057
tp1059
a(g2
(g3
(S'S4'
I0
I1
tRp1060
(I3
S'|'
NNNI4
I1
I0
tbS'spot'
tRp1061
I14054
tp1062
a(g2
(g3
(S'S6'
I0
I1
tRp1063
(I3
S'|'
NNNI6
I1
I0
tbS'defend'
tRp1064
I14031
tp1065
a(g2
(g3
(S'S5'
I0
I1
tRp1066
(I3
S'|'
NNNI5
I1
I0
tbS'recov'
tRp1067
I13991
tp1068
a(g2
(g3
(S'S6'
I0
I1
tRp1069
(I3
S'|'
NNNI6
I1
I0
tbS'finish'
tRp1070
I13917
tp1071
a(g2
(g3
(S'S5'
I0
I1
tRp1072
(I3
S'|'
NNNI5
I1
I0
tbS'focus'
tRp1073
I13906
tp1074
a(g2
(g3
(S'S9'
I0
I1
tRp1075
(I3
S'|'
NNNI9
I1
I0
tbS'sharehold'
tRp1076
I13868
tp1077
a(g2
(g3
(S'S7'
I0
I1
tRp1078
(I3
S'|'
NNNI7
I1
I0
tbS'project'
tRp1079
I13852
tp1080
a(g2
(g3
(S'S4'
I0
I1
tRp1081
(I3
S'|'
NNNI4
I1
I0
tbS'vote'
tRp1082
I13848
tp1083
a(g2
(g3
(S'S6'
I0
I1
tRp1084
(I3
S'|'
NNNI6
I1
I0
tbS'specul'
tRp1085
I13791
tp1086
a(g2
(g3
(S'S7'
I0
I1
tRp1087
(I3
S'|'
NNNI7
I1
I0
tbS'schedul'
tRp1088
I13756
tp1089
a(g2
(g3
(S'S3'
I0
I1
tRp1090
(I3
S'|'
NNNI3
I1
I0
tbS'fix'
tRp1091
I13721
tp1092
a(g2
(g3
(S'S4'
I0
I1
tRp1093
(I3
S'|'
NNNI4
I1
I0
tbS'real'
tRp1094
I13693
tp1095
a(g2
(g3
(S'S5'
I0
I1
tRp1096
(I3
S'|'
NNNI5
I1
I0
tbS'trend'
tRp1097
I13639
tp1098
a(g2
(g3
(S'S2'
I0
I1
tRp1099
(I3
S'|'
NNNI2
I1
I0
tbS'de'
tRp1100
I13510
tp1101
a(g2
(g3
(S'S5'
I0
I1
tRp1102
(I3
S'|'
NNNI5
I1
I0
tbS'tight'
tRp1103
I13479
tp1104
a(g2
(g3
(S'S5'
I0
I1
tRp1105
(I3
S'|'
NNNI5
I1
I0
tbS'worth'
tRp1106
I13436
tp1107
a(g2
(g3
(S'S4'
I0
I1
tRp1108
(I3
S'|'
NNNI4
I1
I0
tbS'cond'
tRp1109
I13418
tp1110
a(g2
(g3
(S'S4'
I0
I1
tRp1111
(I3
S'|'
NNNI4
I1
I0
tbS'team'
tRp1112
I13403
tp1113
a(g2
(g3
(S'S3'
I0
I1
tRp1114
(I3
S'|'
NNNI3
I1
I0
tbS'eas'
tRp1115
I13397
tp1116
a(g2
(g3
(S'S6'
I0
I1
tRp1117
(I3
S'|'
NNNI6
I1
I0
tbS'spread'
tRp1118
I13386
tp1119
a(g2
(g3
(S'S6'
I0
I1
tRp1120
(I3
S'|'
NNNI6
I1
I0
tbS'target'
tRp1121
I13362
tp1122
a(g2
(g3
(S'S4'
I0
I1
tRp1123
(I3
S'|'
NNNI4
I1
I0
tbS'pape'
tRp1124
I13353
tp1125
a(g2
(g3
(S'S5'
I0
I1
tRp1126
(I3
S'|'
NNNI5
I1
I0
tbS'heavy'
tRp1127
I13252
tp1128
a(g2
(g3
(S'S5'
I0
I1
tRp1129
(I3
S'|'
NNNI5
I1
I0
tbS'divid'
tRp1130
I13189
tp1131
a(g2
(g3
(S'S5'
I0
I1
tRp1132
(I3
S'|'
NNNI5
I1
I0
tbS'assoc'
tRp1133
I13185
tp1134
a(g2
(g3
(S'S7'
I0
I1
tRp1135
(I3
S'|'
NNNI7
I1
I0
tbS'perform'
tRp1136
I13099
tp1137
a(g2
(g3
(S'S6'
I0
I1
tRp1138
(I3
S'|'
NNNI6
I1
I0
tbS'german'
tRp1139
I13076
tp1140
a(g2
(g3
(S'S9'
I0
I1
tRp1141
(I3
S'|'
NNNI9
I1
I0
tbS'afternoon'
tRp1142
I13065
tp1143
a(g2
(g3
(S'S6'
I0
I1
tRp1144
(I3
S'|'
NNNI6
I1
I0
tbS'revenu'
tRp1145
I13049
tp1146
a(g2
(g3
(S'S6'
I0
I1
tRp1147
(I3
S'|'
NNNI6
I1
I0
tbS'retail'
tRp1148
I12995
tp1149
a(g2
(g3
(S'S6'
I0
I1
tRp1150
(I3
S'|'
NNNI6
I1
I0
tbS'inform'
tRp1151
I12961
tp1152
a(g2
(g3
(S'S3'
I0
I1
tRp1153
(I3
S'|'
NNNI3
I1
I0
tbS'mid'
tRp1154
I12948
tp1155
a(g2
(g3
(S'S9'
I0
I1
tRp1156
(I3
S'|'
NNNI9
I1
I0
tbS'overnight'
tRp1157
I12943
tp1158
a(g2
(g3
(S'S5'
I0
I1
tRp1159
(I3
S'|'
NNNI5
I1
I0
tbS'count'
tRp1160
I12938
tp1161
a(g2
(g3
(S'S8'
I0
I1
tRp1162
(I3
S'|'
NNNI8
I1
I0
tbS'newsdesk'
tRp1163
I12850
tp1164
a(g2
(g3
(S'S7'
I0
I1
tRp1165
(I3
S'|'
NNNI7
I1
I0
tbS'confirm'
tRp1166
I12802
tp1167
a(g2
(g3
(S'S7'
I0
I1
tRp1168
(I3
S'|'
NNNI7
I1
I0
tbS'strateg'
tRp1169
I12793
tp1170
a(g2
(g3
(S'S6'
I0
I1
tRp1171
(I3
S'|'
NNNI6
I1
I0
tbS'parlia'
tRp1172
I12640
tp1173
a(g2
(g3
(S'S5'
I0
I1
tRp1174
(I3
S'|'
NNNI5
I1
I0
tbS'found'
tRp1175
I12635
tp1176
a(g2
(g3
(S'S5'
I0
I1
tRp1177
(I3
S'|'
NNNI5
I1
I0
tbS'great'
tRp1178
I12619
tp1179
a(g2
(g3
(S'S4'
I0
I1
tRp1180
(I3
S'|'
NNNI4
I1
I0
tbS'fail'
tRp1181
I12610
tp1182
a(g2
(g3
(S'S5'
I0
I1
tRp1183
(I3
S'|'
NNNI5
I1
I0
tbS'stabl'
tRp1184
I12585
tp1185
a(g2
(g3
(S'S7'
I0
I1
tRp1186
(I3
S'|'
NNNI7
I1
I0
tbS'present'
tRp1187
I12539
tp1188
a(g2
(g3
(S'S6'
I0
I1
tRp1189
(I3
S'|'
NNNI6
I1
I0
tbS'propos'
tRp1190
I12521
tp1191
a(g2
(g3
(S'S7'
I0
I1
tRp1192
(I3
S'|'
NNNI7
I1
I0
tbS'newspap'
tRp1193
I12493
tp1194
a(g2
(g3
(S'S5'
I0
I1
tRp1195
(I3
S'|'
NNNI5
I1
I0
tbS'canad'
tRp1196
I12451
tp1197
a(g2
(g3
(S'S7'
I0
I1
tRp1198
(I3
S'|'
NNNI7
I1
I0
tbS'success'
tRp1199
I12420
tp1200
a(g2
(g3
(S'S6'
I0
I1
tRp1201
(I3
S'|'
NNNI6
I1
I0
tbS'budget'
tRp1202
I12378
tp1203
a.